ccopy_reg
_reconstructor
p1
(c__init__
Classifier
p2
c__builtin__
object
p3
NtRp4
(dp5
S'attributes'
p6
(lp7
S'image,src,stylesheet,shortcut,icon,fb,root,container,head,logo,right,box,highslide,html,content,10for50,body,tt,hr,line,l,r,top,pad,vert,menu,left,column,label,categories,list,items,post,go,sponsor,p,img,detimg,product,thumbnail,detimg2,addthis,toolbox,default,style,button,facebook,like,tweet,email,details,title,spc,save,percent,nick,cat,price,po4128,po4129,table,form,avail,wl,add,to,cart2,cart,reviewform,review,author,37,5,message,on,reviews,cdcontainer,bottom,row,ae,branding,rc,womens,no,js,international,currency,dns,prefetch,apple,touch,canonical,url,mbox,page,links,holster,brand,bl,link,item,aerie,factory,tool,tl,not,signed,in,sign,a,quiet,center,out,flyout,login,wrap,bttn,header,small,action,text,divider,standoffish,nav,profile,success,redirect,values,sm,field,test,for,subtext,pass,password,fields,decision,forgot,actions,strong,clearer,account,credit,sub,has,create,aerewards,my,bag,count,etc,site,search,searchable,with,placeholders,get,input,placeholder,magnifying,glass,wrapper,is,font,submit,inner,t,mens,cat4840016,clearance,els,track,order,find,store,modal,country,flag,wide,side,breadcrumbs,crumb,pdp,prev,next,replace,ar,main,area,large,laydown,holder,full,size,viewer,disable,select,prod,images,set,clip,thumb,swap,selected,nail,info,bv,space,bvrr,summary,equity,name,cs,number,color,sale,dollars,cents,code,attr,swatches,swatch,477,586,620,dropdown,sel,true,chart,wiz,quantity,legacy,availability,available,locate,mushroom,faves,requires,disabled,confirmation,added,checkout,help,tips,payments,we,accept,close,countries,ship,share,it,social,tall,bubble,false,gplus,g,plusone,friends,twitter,aeo,pinterest,pin,aux,tabs,detail,tab,pd,sizefit,sf,rnum,addl,padding,leading,bullets,first,second,care,instructions,b,voverall,secondary,submission,parameters,return,cross,sells,qv,sell,xsell,policy,banner,web,only,key,tops,sc,tb,col2,col3,col4,numeric,bust,xxs,highlight,00,16,xxl,18,cat6470599,w,women,empty,cat10042,collections,cat90040,cat10044,cat5180170,cat5180176,cat5180178,cat6120001,cat5900108,cat5900036,cat6300014,cat5650067,cat10049,cat1410002,cat90048,cat90038,cat90030,cat90042,cat380157,cat4260032,cat10051,cat6430042,cat90034,cat380159,cat1320034,cat5920105,cat6460087,cat4840018,cat5450026,cat4840020,cat4840006,cat4840012,cat6460002,cat4840014,cat3040031,linkto,giftcards,cat5650068,trends,cat6520085,cat6570005,cat5750001,cat6200073,cat4920002,foot,footer,signup,up,blog,shopkick,copy,sitemap,gift,card,balance,gc,legal,bar,closed,parappatherapper,fs,threshold,panel,promotion,free,shipping,total,open,power,level,condensed,view,messaging,headers,us,cost,col,enter,expanded,promo,discount,codes,discounts,chelp,apply,msg,internationalized,element,continue,shopping,other,options,or,new,arrival,exclusive,114,410,col5,col6,length,neck,chest,arm,xl,xxxl,cat6470598,m,men,cat10023,cat380149,cat10036,cat6430120,cat6430076,cat6410043,cat5650036,cat10025,cat90012,cat90018,cat4860026,cat90020,cat40005,cat3130041,cat380145,cat10027,cat6430041,cat40003,cat5180435,cat6470001,cat10032,cat4840022,cat90024,cat4840024,cat5650042,cat6430065,cat6290136,cat6520054,cat5650001,cat6470615,cat6200054,440,marketing,198,131,401,073,126,481,260,872,143,097,bottoms,waist,xs,26,38,40,42,44,46,231,221,247,denim,col7,inseam,28,30,32,34,36,x,all,print,catalog,aldous,categorypath,sunwear,category,supra,notices,noscript,12,switches,grid,quick,access,block,qty,dkblue,subtitle,btn,notice,mini,contactus,state,logged,clear,welcome,navmenu,level0,1,active,parent,section,submenu,2,separator,give,pair,our,story,monocle,last,breadcrumb,home,category6,styles,hidden,4651,4652,4648,col1,layout,display,contact,preloaded,thank,you,popup,messages,contents,alpha,required,fullname,entry,validate,omega,phone,telephone,optional,ordernumber,subject,styled,comment,buttons,hideit,loading,sidebar,call,hours,faq,ajax,bundle,sunglass,private,current,sku,gender,regular,standard,old,lense,special,essential,gallery,frame,control,previous,pic,overlay,measurements,h,meas,bridge,width,distance,value,lens,v,outer,height,temple,face,headturn,snippet,polarized,helper,3,related,option,english,oak,visibility,both,cedar,tortoise,revolver,black,matte,shop,4,addtocart,id,hto,nonrx,non,rx,without,plus,sold,off,alternate,pre,buy,try,autoscroller,learn,more,internal,before,permanently,unavailable,sorry,note,vto,prefix,8,suffix,description,custom,centercol,em,click,closing,subsection,colorbox,cbox,feedback,little,inline,57x57,72x72,114x114,144x144,data,fkart,fksk,fk,mainhead,vd,trust,gu16,flrt,gd,gu4,check,rmargin5,tv,karo,unit,bmargin10,cstext,padding10,big,bpadding5,tpadding5,error,err,size1of4,lpadding20,ext,size3of4,blue,ul,disc,lists,offer,uppercase,digital,wallet,fksd,pheadertext,boldtext,bmargin20,normalfont,fclear,scroll,limit,hsearch,patch,dd,ctg,arrow,cache,13,ac,2oq,osp,tyy,6bo,reh,jek,bks,j9e,t06,4rr,ckf,4kt,kyh,dep,ixq,as,show,bold,tracker,vertical,auto,suggestions,panelsh,hover,underline,cls,cont,medium,displayed,fixed,mainbody,shirt,enable,compare,newvd,400,lbreadbcrumb,pp,recos,reco,nprod,mproduct,mprod,topsection,blocker,basic,multi,visible,tshdhxgh5,kexgxnp,zoom,imadh37,mbqcgahkf,loader,ui,ccarousel,supercontainer,require,mi,carousel,tmargin5,nojs,thumbs,merfxx8,fc,msknwegan,toplinks,bmargin5,wlist,write,wishlist,multiselect,module,multiselection,bpadding10,palette,nonclickable,tshdhxghknrbj9,ez,pane,disclaimer,guidelines,silhouette,boxes,missing,msi,tshdhxghgduubhk2,tshdhxgmugcfbkjn,tshdhxgmgcufhycr,soldout,tshdhxgmpnegwryu,rposition,strike,sizechart,size1of2,prices,verybig,pprice,11,seller,badge,bmargin3,hgram,wsr,rating,breakup,float,histogram,tmargin3,bars,progress,addon,clubbing,positive,neutral,negative,green,lpadding10,offers,size1of3,applied,headertext,shippincost,helplink,helptext,question,answer,tmargin10,lsttshdhxgh5,kexgxnph1,cj5,orange,now,fkg,tmargin20,clickable,cod,helppage,lmargin10,exchange,stock,sec,status,instock,pincode,checker,location,textbox,static,vmiddle,res,replacement,prompt,variant,mplistingscontainer,horizontal,position,relative,border,15,tshdhxghjqwtz6,pq,pu,visual,extra,final,17,tshdhfrj7,ufpwvfe,tshdhxghnejhksgg,tshdhxghfqwyx4,yb,tshdhfrj3,njv8,hnj,tshdhavpf5,dzgyen,tshdhfrjbf3,qtewa,tshdhfrjdpuqksbj,tshdhfrjhyjwgwsj,tshdhfrjarvj27,mz,tshdh9,qnpzmpxhwm,qnbwrvz5,tshdg5,qg28,zc3,rja,tshdgb7,uu4,kx6,dux,ungfz3,c5,z,tshdhdxjdchmacyy,gu12,mobile,features,desc,promos,promotions,terms,see,and,c,lmargin20,tmargin15,specifications,specs,type2,group,gen,nt,ugc,size5of6,unboldtext,section1,ratings,tracking,rmargin20,size2of3,user,0,ads,rb,ad,div,524773ca22cb7,bdy,same,fks,524773ca23e47,524773ca242cb,ga,conv,expco,mainfooter,tpadding20,bpadding20,dark,lite,size10f4,lpadding15,boosters,bpadding15,policies,footet,cr,kit,icn,google,sprite,hf,tpadding10,brands,rpadding10,size1of9,pmw,payment,method,powered,by,payzippy,dashed,dialog,signin,bmargin15,bd,tiny,rw,lf,rt,hash,frgt,pswd,passwd,suc,paswd,hdr,txt,message2,repeat,connect,tmargin25,iframe,aff,webengage,script,tag,head1,asp,net,viewstate,zone,achat,22890847,publisher,screen,enfantbebe,lingerie,chaussures,sportloisirs,beautebienetre,meublesdeco,lingedemaison,literie,electromenager,hightech,jardinbricolage,ot,news,offres,layer,fixpng,redoute,hidden1,hidden2,hidden3,hidden4,log,acc,fle,toggle,se,connecter,basket,bask,con,png,suivre,mes,commandes,articles,products,ident,layer1,itop,i,disconnect,acct,me,deconnecter,none,hyper,link2,lbl,greeting,anch,focus,rdte,nav082010,onglet,version,nav2010,separ,femme,22890157,line1,defaut,background,homme,22890626,22890572,line2,grandestailles,41515070,22890374,30298933,12001591,12001592,22890817,44311162,22891059,22891092,jouets,75428534,vp,bg,aubaines,23107224,nav2012,col0,date,deb,fin,marque,lnk,clslnk2,lt,simple,espace,client,fh,homepage,exo,perso,ab,testing,jsonurl,dimension,categorie,22890662,lesaub,nofollow,evo,mp,hid,query,counter,visualstyle,bit,allowed,domains,navigation,place,retour,back,pictures,additional,views,jcarousel,skin,tango,zoomer,picture,play,std,sticker,of,associated,push,rpt,productimg,minipdp,lb,from,ids,infos,read,rptr,ctl,previews,pwr,stars,partager,service,picto,events,event,selection,skus,vendor,delivery,drp,colors,ean,eancode,availablity,availibility,noon,deferred,restock,alert24h,alert,outofstock,substitution,prix,fute,rough,rouge,varied,minimum,maximum,ecopart,information,eco,part,compliance,fee,techical,template,validity,reference,priceref,sales,facilities,atb,enabled,atw,div1,services,tech,conditions,paid,li,child,idz,chat,online,widget,idzlr,offline,c2cwidget,send,friend,mail,reseau,good,deals,waiting,detailed,commercial,pictos,questions,answers,qns,ans,rv,comments,sumup,tags,summ,sentence,commenter,cust,recommend,4423554,condition,ask,rs24h,sstock,red,point,max,after,deliveery,atwl,haut,upsell,oe,st,pubiframe,footer1,context,mps,2012,ct,tit,tsx,numtel,tel,cop,tsr,tsp,marques,dcat,newsletter,foo,appli,tsn,sn,ctn,snp,snp1,snp2,snp3,snp4,snp5,spot,numero1,base,opacity,equal,priceline,accroche,economy,deal,addition,designation,striked,separate,soldby,mcp,benefits,span,div3,ie6,fix,ps,psl,div4,rsa,24hour,outof,address,customeremail,do,yes,thx,isbasketlayer,h24,customer,div2,q,vc,mentions,finaref,closer,seen,sticky,opened,clic,derniers,edge,preferes,down,remove,bloc,prefered,step,path,path3level,flag3level,content1,flow,schema,weeks,alternative,similarproduct,ava,aexchange,echange,aexchange2,lasav,clobscript,one,two,nope,cancel,pdt,ie9,ie8,ie7,fr,ctl00,analytics,fl,outlet,magazine,skip,h1,tip,pos,oldprice,hide,apartirde,mise,en,avant,fav,white,shareit,lightblue,twt,ctr,vignettes,140954,heart,24,140950,140945,140944,140939,137663,147912,140845,142296,142291,142289,140779,pt,140953,140957,140933,140947,140949,140946,140959,140935,140948,140934,140951,140960,complete,look,161472,117255,117260,117258,117273,117280,151733,117259,117287,117274,151729,117256,viewed,14,mask,spartoo,liens,obf,424,f4,ec0,cb4319,c045,c0,c02,f424,e4,a494,b432,e2,c243,c1,c44642433,fc04,ac1,c14,a46494,a4,c4319,f49,cb4,a42,cb19,lang,be2,45,cbcbc02,d1,f1,fcccccc19,c2,c04,f19424,f484,e414321,be,f194143,f19414,f1943,c31,f2,e45,cz,f1942,cd,dk,f194,b47,de,b431,b43,es,ee,f194343,hu,f1945,c3,ie,f194643,f1946,cb1,e46,cb,lv,f1948,c4,lu,mt,ecb,nl,f1949481,e4948,at,acb,pl,f19,c048,ro,f,ch,f194245,sk,c247,si,c246,fi,f194446,gb,c347,gr,cc11,cc1,cy,e42,c6,ope,livraison,temps,num,panier,numberproducts,caddie,lien,a494643,c119,normal,b464,b4,ac219,ba43,fc24,f4843,c21,e41222619,ba4,acb454,a1,e31,c346,cd1,e484,e30,e412,b252,a19,ba464,c48431,a2419,ba46,c11,e32,cb43,c01,e41232,a2,cc4,a48471,e412219,ba484,a46491,eb14,ac2,cb464,a49461,a242,ba484843491,eb34,f494,bc21,e4125262,bac142,a232,b2,c19,bac1,a202319,cb45,eb33,b1,ebac2,f491,a21262,bac2451,a212,ac24642,c219,bac2,bacb43484643,e344,f46,c246491,c2619,bac3,cbc14,a48464,eb8,c5431,a232619,bacdcd4,ac14,a212119,b14,a41,c6414,fcbcb431,b19,ac1414,e314645481,a222,b2019,ac14843,c6424,fc1491,e4125212,b1431,ebf4948,c61,c222,b143484,e4126262,b14349,c2464,e4122222019,b143,ebe4,fc349,cbcbc61,eb84,e4126222619,b1464,ac11,a202,a2619,b1464747434,e4143,cc21,e41242419,b1464848,fc1494,e4125212319,4146,c1474349,f424719,d4,fc14,e4125212419,b7311,b1484,a4247,f49431,c2419,b1484649471,e4123222319,f42451,e41212,fcc4446,c2451,e4124202,c431,b2219,c143,cbcb1,e324,c51,e4121222119,c344444,a484,e41212119,c34,acbcb461,a24222,cc61,c34848414,fc543,e41252,c3494743,e4122222419,b2193043,cbc3484,a22252519,b24,a42454,ac143481,a44431,eb94,a202019,ec043,e41222119,ac14846494,ccb4,c2119,a481,ebacbcb46,cbc34,e4126252319,acb4,ac146494,cb4649,b2319,acb43,c04648484,e4121212519,acb464,e4649461,b252519,b2454,b212119,b24543,c4464,c494,a22212319,b2454642424,b24546431,ebe46454,e41222,b24546,c046431,a2119,b245,c146,a491,a20242519,b2464,a252,c2219,b246,fc3464848431,e43,eb24,ec04,c4946431,b71,f48484342,c202019,b2484,ac147,fc1,f441,a4846444,fc149464,a20232019,f48,e41464,e41212219,c443,c2431,e412319,ac61,e4124212,fcac343,a26222419,fc34843,e304,fc3,c1431,c1434,acb46,c4431,e314342,a20202219,f444,f48461,b202,f42,e4123202519,bb4,ac4464,ebd4,f4943,e4126262419,bbb21,e32454,f43,e41242,bb4348,a202519,bb43,cc34,b2619,bb4643,c243481,bbb6,be1,a23212219,bb46,c24943,c2019,bb474,f424743,e41,ebc43,c148461,e4126242519,fc14746494,e4124252019,fcb43494946,e4126232319,bbc11,cb4349,bbc1434,e1,e46491,ebcc14343491,e41262,bbc349431,a26202,bb34321,e41212019,b34,cbc04,a471,c2519,b3481,acbc3,a4846,b34843,c443491,ac146,b348,c3431,e494,b3,be331,a42431,e4122222,e4121212619,cb494643,e41242019,b44,e4125222519,b44346,b4434,e431,e3048,a23222019,b443,c14642434848461,e4126252,b446,cbb4484,fc01,b202119,b448,c342454,fc21,e3043,e4125202,c143434,cc3491,a24212619,e3,b19304,a22252219,c31946,b252119,bc1,e314,acc1,a21252319,bc4,a23212319,a414,fc11,e4124212619,c44,a4846491,bcb1,b11,bc434,fc51,bc4643,cc4346491,bc46481,eb54,b242,bc464,fc243,a20202619,bc484,f41431,ec34,a232319,bcc343,c2319,eb71,b2519,bc3535,b81,e4125262319,b54,ac44,a464,ac21,e4122222219,b5434348,b54348484,eb746,b543,c54,a22242619,b5461,b43421,e4126212119,b546,a4946,e4124262,b5,bc24,e4124222,e43481,e4126232,c349,e4124212519,c04643,e4121222019,b64747,b262019,b6,eb446,a2319,cc3484,eb2454,f4642431,e41242619,bd4,a42471,b252219,b242619,a4943,cbb33,bbd4,a22222,bdb11,cb46491,bdb4,a2019,bd464,e3146424743,fc0,c043,b74,e4125222119,ac04,ac0,acc4,ac24,a47461,e4125222319,b743494943481,e3242454,e43494,c43,b746424743,e41242319,b7,beb11,a451,fc2,fcb454,a461,a20232419,b84,a424,cb431,e41262019,b8431,fca1,cb46441,b434,eb243,e4124212119,b8434848461,eb7434848,a20212419,b843,e301,ecb46,bc14,fc043,cd4643494943,ebe1,eb143484,ac141461,a2519,c446,e41262319,b846,cbcb48431,ac14243481,a20232,e4125202419,eb3,c0434843,a22252,f484846,e41262619,fc4431,fc2424546494,a23222619,b8,c348,c4943,cbcb431,be4,a421,ebb4,fc34,c484,b222419,b202419,fc347464,a25212619,ac1424,fcdcd461,ac1464,e4125252419,cb45431,eb4,a49424,ebc46,c1414,ac34,b262219,be4346494,b481,a20222119,be43481,e4126252219,be43484649431,be434846,c24,be43,c14348481,e4121222,fc1441,ebfc2431,e4125222219,be46494943,f49474,be46,cdc3494,a23212,dc3,a20242,e251,e4123212019,a22252319,fcb1,e4124262119,e4123232,e41262519,be3,bb9,bec64,a24222319,b94,ac0464,dc1461,b2419,acb1,eb946491,b9434,fc24349,b943,a4942431,f42471,e41212419,b94647431,b212,f431,f43481,fcc1,e4125252319,bf4,a47,bf49431,bfc246,e41212619,bf35321,a48484,b46,e19,304,a41484,fc247,a222419,e4122212019,a49,a22252619,c34243461,acac343,cb434848431,acbc14642471,a22242,ac3481,b232119,30434,b46424,f49444,e4126222419,3043484843,a23212419,3043,c0431,d434,e41252419,c1484,a222019,eb74,a46,cb46,acb434,ac31,e4125242419,ebe43494,fcb431,e4123252,3046434243,e4124262219,3046474,f4846494,a2219,3046494,f424245464,304649,fbb46,b148,a202119,3046,cb4648484,a20242119,a48,c0451,ac3,c143491,ebac0461,b262619,a484843,c146494,a22262219,c1464,e464,c461,a242219,f4443,fcbcb4643,b202519,e41222419,ac34647,c24648,314,31434,bc2474649,a212019,314343414,f471,e41212519,314344,a23262619,e4125252119,3143,c0484,3146434743,c252319,3146,eb2,c1481,f414343,f4143,eb24843,c146431,b202319,f4247,e41222519,c24348484,a262,fc5,324,a22232219,e4122212419,b43484,a23262519,e4126242219,3242454,3243414,e4121212419,3243494,e414,fcbc21,c262019,3243,a444649461,a22262019,32454,ac0431,e33,e4123202319,324543,c04543,324743424543,e3246,cd431,b2119,fc143481,c262,3230,a26212119,a25252619,c424,e4121252219,c0454,a49431,ebc4,e4121212319,c464,e4126212,cbc64846,cbb2484642471,a252419,c13,ac2451,a24232419,e4126262119,e4123262319,a49491,ec21,bb1321,a242319,b43424946424,e4125242,bc3,b45431,eb44843,a22232119,cb451,eb44,b454643,ebec34,c4843,e41252019,b454649471,a202219,a46484,a23222,ec61,eb5464844464,e4125252,fc2424,eb148,bc1434,ec01,e4124262519,b33,3319321,c249191,33,bcbc1,b202619,33491,acb46491,a202619,ecb4,e43491,ec4464848431,e4126222,334946,e4121222219,334947,c202419,344,e4124252519,e41232119,3443,a23202,3446421,e4122262419,344642,fc1464,b252319,3446,c202,cc648,35,cb461,e4124222019,bags,smenu,ec24,e412222201,e412626241,b261,c251,a2224261,a2023241,e412421211,c261,ec2,a202324251,a242019,fc3484643,ec2454,c046494,f4245431,a242119,cb434443,c3464848431,a2021202,ec44,fc64,a20212,e31464,a424243,c048431,a2024232419,e44434,e4319,e454,c2424,c14319,414,41,c2464943,42454,e424543,c4434848431,e424,univers,a48431,b251,e2019,ac24743,fcbcb4649431,c046491,a21221,c14649431,a261,e34464848431,a23241,a23231,bec348431,a22261,e412622261,e41231,c241,e4124231,b241,a25241,e4123211,b25231,e201,cbc21,a251,a202020231,a21261,e32474,acb431,a23201,a21201,a20221,ecb43494,ec2474,e424546421,e43424,ec14,c243484342,a202426261,kids,e4349444,e4446484843,cbc219,b201,ec44648484319,e4245464219,a49424319,acb4319,nouveautes,e26202,e41434143,a21251,cbcb43,a2023212,f4919,prixdoux,e2523211,bc146484843,a22231,324846,a23211,e4643,e25212,cc14,a46484843,vetements,femmes,e4126251,ec443,cb434,e4349,bf4948,a2320201,e412121261,3446484,a2420211,e412524241,ec24546,c201,c34848,ebc464843,a231,b245434,bc34946,cac343,a25221,bd434,a24251,42434649,cbc3,eb143,b4349464,48464443,cbc648431,hommes,a2221231,a2125231,e4125221,c231,e4126231,b143491,e324543,e412521211,a49474846491,c2454,a48481,a2424201,a24241,a4648484,a26221,luxe,c34946,e48,cac3432,a20252019,b46494,e25262514,c2432,b202314,e25212614,c212614,c54319,a232419,a212219,a222619,e42454,f424543,c143431,a2024252,a4148431,a2023262,a2023242419,a2023262619,e4248431,a2024222119,444,fc3484,encart,sacs,montre,bijou,visuel,titre,gauche,b331,b9,a2526231,cbc143,a25211,a241,ac2464,a25201,cb46494,e4122202,ecb434,e4243,fcbc3,e412123201,b946,a2424221,bfc043,a26251,304643,a49494643,e412120211,eb1484,e4121202,e412120261,cc343,e412423221,eba494,c46,a2024252519,ebb464,a4843,a2024262019,ebe46,cac3431,a2024262119,e42484,b4319,c4919,bas,ba4843,c546,a41464848431,e4126202,c519,cd4,e412324221,ba49,cb46471,acb46471,a25252,b746,c04846494,a21241,a4743,c20261,e412325211,f4946,a2023261,e48431,41464,f48484643,a42434843,a2021202619,fc3424843,fc14346484843,soldes,ec44349,c44343,onglets,double2,keywords,rechercher,sban,c012,contenu,filtres,classiques,actif,avances,spirit,srub,champs,10157,10123,10156,10147,10146,10201,10162,couleur,19,7,dis,per,cloud,advanced,avance,adv,type,type1,filtre,type200,type300,separateur,arrows,style10009,style10010,style10090,style10014,style10095,style10037,style10034,style10085,style10078,style10091,style10043,style10598,style10678,style10676,style10093,id1,id2,id3,id4,id5,id6,id7,id8,id9,id10,colors19,colors35,colors8,colors38,colors46,colors28,colors7,colors1,slider,range,amount,season,seasonnew,stengel,composition,composition1,composition2,composition6,composition5,voering,droite,prodcard2,hproduct,prodcard,fleche,marque2,fn,vignette,thumb120,photo,magic,global,miniatures,infos2,market,points,mac,your,lessprice,less,explications,radio,cell,frais,jour1,mois1,annee1,email1,city,jour2,mois2,annee2,email2,boutons,annuler,valider,reassurance,gratuite,prixbas,le,gratuit,satisfait,ou,rembourse,bas2,3d,a4243414,f473,fc2454,ac14319,bc342,cb2,e212,b22242,c2214,cbc6,c0432,ecbcc46,c22,e444,description2,box2,close2,wish,redirec,bt,pink,transmit,valid,just,couleurs2,contentcomp,celluleprod,contentimg,comp,comppourcent,celluleprix,cellulefleche,price1,titrereduc,avis,noir,modifier,visu,img2,container2,images3,pop,alert2,module3,424543,ac319,c0434943484,fc04319,fcb434,f464,c243304,f41484,e,cbc64843,cb43494,a494243,c23,aca19,c14342,cc419,f48434,4249464819,cgvtxt,cgv,operations,flags,fevad,nocookie,promoter,score,spottv,produit,object,oldie,baskets,tennis,montantes,adidas,pie,forms,ok,autocomplete,clearfix,drill,drilldown,favorites,99088,bargains,sandales,collection,confort,ceremonies,petites,et,grandes,pointures,professionnel,sportswear,bebe,licences,du,moment,vu,dans,la,presse,bonnes,affaires,enfant,garcon,fille,magasins,jolies,single,102889,labels,soon,limited,collateral,attribute,list2,attribute152,option327,option328,option329,option330,option331,option332,choosed,guide,opener,super,increment,decrement,processing,confirm,ref,fancybox,goto,quicklook,95474,109524,80756,shiptoshop,baobazproductzoom,fbprod,tooltip,tw,twitterprod,pint,pintprod,pinit,gplusprod,similar,pngfix,73847,102888,88024,109486,74460,109512,upper,paiement,gratis,btns,company,seo,handheld,dp,singlecolumnminwidth,divsinglecolumnminwidth,trans,pixel,swm,holiday,map,subnav,imgmap,books,boutiques,francophones,drive,electronics,health,beauty,kindle,music,software,tools,toys,baby,videogames,watches,luggage,handle,session,asin,merchant,node,listing,selling,source,org,qid,sr,buying,twister,atf,emwa,feature,buybox,tr,gold,bb,merch,s,preorder,atc,prime,lower,br,gft,condo,add2,taf,swftext,vam,size0,canvas,strip,shot,middle,original,caption,parseasin,pipe,vg,popover,sw,chevron,listprice,actual,ft,end,bucket,qp,med,ps3,y,bxgy,byline,priceblock,margin,cartadd,init,exposed,b00,ceygkf,eseller,a7,qpni6seller,purchase,sims,shoveler,shvl,heading,pagination,pages,start,over,faceout,p13nimp,d2,g4,ixy,sim,binding,platform,pricetext,bqwtgh4,bmfixow,b002,i0,gf72,b005,dwiazm,dou2,nqc,epd,d,100,p13n,euq1,wtgctbg2,ceygkfe,wctqyfyz5,w007,hzgtaf,rank,zg,hrsr,ladder,lwcf,ns,2881,community,trigger,gfix,2880,hmd,pricing,lazy,load,amzn,amazon,until,ready,combo,unclickable,if,javascript,alt,18811079383976303,ts,liked,whitelist,commified,minus,cpsims,vtpsims,cp,qpni6,vtp,avg,star,ejdg3,jg,bjb9,zt6,b003,o6,e6,ne,caretnext,pcr7,mt15,pc,rev,sum,mb15,txtnormal,hist,txtsmaller,histo,rowfive,clearboth,gr10,ltgry,mr1,rowfour,rowthree,rowtwo,rowone,txtlarge,gry,pr7,mb30,acrt,arid,88962cdaf6ce44d6bea2bce943d06274,browse,subcats,android,subcat,taglined,movies,cat2,6,9,10,sports,outdoors,cats,amabotandroid,tagline,carat,indicator,yourorders,dynamic,sv,fo,listmania,h3color,rpli,tan,rhf,history,spacer,sis,r2,asis,1click,tsdelta,moz,appearance,speech,tailles,153426,161728,154278,149336,139890,158020,158015,150538,138974,160317,159074,158049,158025,158023,158022,158026,158017,158021,111183,121752,121762,121769,111178,111184,bensen,optical,category7,4641,4642,4638,freeshipping,storage,own,tryit,crystal,edition,ways,way,frontview,window,fieldset,recipients,sender,button2,curtain,zoomed,slideshow,slides,slide,thumbnails,viewport,overview,whiskey,olivewood,greystone,datum,launch,diagram,master,j,swf,live,intent,api,dl,jq,precomposed,public,catalogue,productpage,world,common,aspnet,eventtarget,eventargument,act,manager,uc,lost,mdp,ctrl,pnl,rounded,ajouter,adresse,croix,lir,u,3063,imag,3064,phon,3065,jeux,3067,cnso,3068,cnct,3888,logi,4193,encarts,bp,proxy,suggested,upnl,recent,commande,supplementaire,bouton,wiewed,fermeture,texte,nom,article,ajoute,qte,transfert,proposition,quantite,poursuivre,bleu,voir,commander2,lbe,compte,shadow,tbwe,pwd,accountbt,lt2,hpl,logout,prenom,sous,defilant,content567,headline,rfv,ddl,png32,dgn,lbt,moins,dispo,ico,productdispo,hl,d01,choose,franchise,bout,chemin,fer,e0,children,categories01,categories11,qr,cph,pouet,printdate,productheader,productshipping,productactive,blocprix,tax,blocdispo,relais,chrono,paiementx3,cofinoga,courte,longue,productphoto,photodefault,photopopup,nc,productinfos,chapeau,readmore,sharepalert,sharefav,shareprint,sharesend,legend,sendfriend,intro,validation,invalid,champ,libelle,txb,reg,20,modalcontent,hdd,fsl,470021,boutique,d09,alternated,470024,d02,470030,favorite,ctl03,cpv,ctl02,ctl01,made,france,openadszone1,comparator,productfiche,descwrapper,productanchors,descriptif,logomarque,lienmarque,reseaux,sociaux,fichetech,parametres,fiche,critere,allparams,parameter,groups,groups2,odd,even,flottant,bleulien,popinbutton,producttops,productlist,listinglight,el5,detailproductpopup,line0,p0,bleuclair,commander,caract,p1,p2,ctl04,line3,p3,ctl05,line4,p4,upd,also,bought,similarproducts,topthumbs,el4,footercontent,content2823,filet,ftservices,ftdebexp,ftpaie3x,ftlivrom,ftlivrex,content2824,ftfaq,ftmodepaiement,ftlinks,fthelp,h4,ex,rkw,dnmlinks,dnm,content2822,geo,adr,street,postal,locality,marqueur,consultation,choice,lifr,libe,lich,pays,flagfr,flagbe,flagch,groupe,ldlcpro,maginea,anikop,hardware,aide,nrp,dyn,pap,x2s6df8d,boots,bottines,andre,nouvelle,category27,category1418,category1421,107827,leather,option352,option354,option356,option358,95272,74470,67148,40720,22543,cable,103034,option360,option362,option322,option323,option324,option325,option326,option33,109195,41995,38306,103055,103064,107812,95312,95311,10124,10155,10130,10127,e412121251,ec0484,acb19,fc6434919,style10015,style10011,style10044,style10013,style10008,id86,id85,id84,id11,id39,id38,id36,talon,talon1,talon2,talon3,composition7,e262325212614,e2623252126,complement,ebeb33,bbab8,b21,ec52,a202326262,db331,beba3,e3230,bf313,ebcbf31,b31,bb3351,a25242,e3133,bcbcb3,bb1,eb83,c301,ebe3,eb1,bfbf3,a2021232,bbbb361,ec5242,c242,cb3,b83,bbfb91,ec5252023212,bf1,ec5262,c25262,e34,bab9,bc33,ba31,a232225242419,b24201,bfb8,bf31,babbbf1,ec5212422212319,ec5212422212,eb5,bfb83,e32221,ebbbf33,bcb8,ba321,css,endeca,lp,mui,gn,guided,filter,tree1,universe,repeater,guidenav,headbox,checkbox,filters,list1,span1,otext,sort,art,nb,pricecontent,listpage,drop,cmb,smartpagination,prodlist,document,stoprayon,reduc,partir,jusqua,clr,participation,m2,ff,moteur,ftr,41515233,4294956055,4294956464,4294956185,4294956481,4294956141,4294956076,22890707,4294956444,4294956427,41515249,4294956306,4294956405,4294956362,4294956401,4294956408,sky,pub,dim,cookie,scat,event25,personalization,idees,model,creator,lacets,sirmione,68942,option34,option35,option36,option37,95318,87959,23473,107345,41376,22560,74401,30361,10148,10134,10139,10119,10129,ecbc143,594,25,style10041,style10018,style10035,style10040,style10570,style10609,id41,id40,id37,id35,id34,id33,id32,id31,id30,id29,id28,id27,id26,id25,colors15,colors13,colors594,colors25,talon4,talon5,composition8,zool,composition10,composition11,c252314,c2523,ba3,dbfb8,bba1,bfb2,ec5212,c252,c252419,c252519,153425,139805,154277,150819,143705,143324,158051,151097,150541,150537,149252,143308,153430,112590,112591,153429,153435,153428,66218,129994,129995,129997,129999,81085,10170,10176,10174,10183,10171,10166,style10056,style10059,style10771,style10775,style10054,style10045,style10047,style10063,style10053,style10048,style10697,style10061,style10695,style10062,style10790,style10052,style10773,style10057,style10774,style10081,style10781,style10511,style10772,style10770,style10789,style10512,style10786,style10596,id291,id282,id283,id284,id285,id250,id664,id661,id599,id600,id601,id602,id15074,id15080,id15081,id662,id649,id641,id642,id643,id15082,id15083,id15084,id15085,id15087,id15089,country30,country105,country144,country171,country214,e21222321222014,e212223212220,downing,4834,4830,walnut,composants,ordinateur,portable,tablette,tactile,smartphone,ecrans,lcd,peripheriques,pour,ordinateurs,wi,cpl,systemes,exploitations,logiciels,livres,consoles,video,televiseurs,led,plasma,videoprojecteurs,hi,cinema,appareils,camescopes,numeriques,telephones,mobiles,gps,casques,audio,lecteurs,mp3,mp4,ipod,geek,connectique,informatique,cartouche,colonne,pres,dt,assoc,surlignage,ancres,produits,complementaire,enveloppe,simi,icone,ajt,icons,prodfield2,prodfield1,hors,obso,com,h2,liste,similaires,alerte,aside,formulaire,recherche,register,1of3,2of3,3of3,premium,securite,transport,escarpins,paris,texas,108382,95495,64503,81082,81055,80956,73924,64547,109249,ilt,pagetype,wt,refpoint,usp,overflow,third,claim,nat,voucher,but,qs,countv2,trusted,v2,inactive,absolute,femmechaussures,femmevetements,femmesports,femmeaccessoires,femmeluxe,maisonfemme,femmemarques,femmepromo,lounge,cleaner,pds,media,ios,islider,magnifier,nowrap,sizes,when,es151,h07,k000,one000,pointer,facts,metric,breite,material,clothing,washing,day,initial,rates,rate,uni,53,anonym,nickname,checkline,cc,subscribe,r0,recipient,name0,email0,reminder,sex,female,radiobox,checked,male,subscribed,partner,explain,correction,prefilled,cards,visa,amex,carte,bleue,cheque,paypal,certissim,awards,teaser,pick,fourth,tube,instagram,book,n,o,ad1,textlinkads,underlined,ssl,lock,remind,cto,7712356,server,ctoparams,3245,sandal,snddmeszxpycuzju,imadnc6,w5,g2,zr6,gt,w6,atgb8,ug,vvk9,yrh,wdbghz2,gu,whktf2,qvp,wvttjz9,wh97,eccfd,vs,snddmesz3,ddcpnvy,snddmeszfm9,ppreh,snddmeszxrkjfxgu,snddmeszfhvszenq,snddmeszzz2,fd8,vy,snddmeszgsbyqpgh,snddmesz9,v6,uyvzg,snddmeszce4,fzsds,snddmesz5,sksjehd,lstsnddmeszxpycuzjuuve6,ya,snddmesz6,kwhgw9,snddmeszcuptahtk,snddmeszaads4,awv,gcw7,fbx,snddmeszdsjpdfnk,yxhvswb,snddm7,yg2,cxkyucq,yk9,gtgk,snddhsnzckx9,xyxa,snddmesz63,dmwp4,snddmeszfmqyhtbg,snddmeszaubdyfdz,524773ddb9706,recom,fksks,extramargin,bs,testpid,subadd,tpadding4,524773ddc50b1,524773ddc5530,transitional,extended,gradient,guest,nag,tpl,meta,registry,popout,usable,tabbed,giftcard,etsy,router,language,region,preference,detected,searches,string,borderless,embedded,connections,registration,spinner,dividing,pending,username,alternatives,fineprint,finds,ov,existing,persistent,join,csrf,narrow,blur,primary,treasury,treasuries,errors,pubic,blank,col12,avatar,fave,attribution,unfavorite,favorited,unfavorited,favoriting,unfavoriting,14703014,listings,bin,fix990,fix570,104608902,6497391,done,circles,circle,ss,customize,convo,reviews2,lit,markdown,about,avatars,time,methods,destination,symbol,variations,variation,property,properties,transaction,sharing,collect,chooser,share2,share1,lid115215765,115215765,lid164069272,164069272,lid152314718,152314718,lid123031954,123031954,lid122831499,122831499,lid92816409,92816409,lid121481592,121481592,lid126591126,126591126,120169360,reporter,slice,locale,spacing,topics,press,developers,careers,privacy,copyright,minimal,suggestion,settings,switch,grey,eventlogger,php,names,variable,selector,app,device,tablet,supported,ignore,request,uuid,whitelisted,preview,chrome,instant,15373399,88245508,6610036,lid89266082,89266082,lid89671893,89671893,lid89943262,89943262,lid89797661,89797661,lid151627075,151627075,lid130052179,130052179,lid93207438,93207438,lid119347763,119347763,rcx,subs,softlines,exp,co,corner,atc1,bbo,ptext,lm1,mbc,qpnk4,ever86,ct6,hif,td,xt84,ih5,yqxk,used,olp,sdp,yours,here,9307,discussion,timer,countdown,cond,xbox360,qpnk4seller,ceygle,oseller,ceygleo,bvzuw4,d7,nqp9,i098,je,0744014670,pcd2,qpnk4sr,ywkaxrpnp12,shex4,mtw,7600,5538,5537,aplus,three,e7,wfzx4,cy92,xua,wgfe2,wg484,mhl,gl10,acr,txtsmall,inlineblock,gl5,mt3,decoration,wr,mt20,mh,most,helpful,rl3,d0,qjyzke0,hlp,mt4,ttl,gl3,gr4,valign,ath,gr8,fvavp,format,gr3,opt,mt9,drkgry,mhr,rest,expand,gt9,vt,stripe,voting,mr6,negative3,mr2,vbecroxotoyn,gl7,gr7,avp,vine,r31,d6,fmppuq4,d5,oh,mrl,8652e923d56746fe89b52477ca99c22e,mt14,r3,nnnd46,q0,zbbw,pbl,mt17,rfou72,r5,kmt,r8,jtle7,sqsokm,mb5,mr5,po3613,po3410,logistique,productasso,ombre,asso,el2,photo1,photo2,photo3,photo4,ajout,seemore,asterisque,8177054,116016570,5678469,lid55831817,55831817,lid38644798,38644798,lid42005811,42005811,lid90054558,90054558,lid162705464,162705464,lid112592495,112592495,lid118608232,118608232,lid39180144,39180144,8572219,105206016,5721647,lid97365722,97365722,lid78817194,78817194,lid151383015,151383015,lid95923891,95923891,lid151382551,151382551,lid69698453,69698453,lid56658595,56658595,lid78638753,78638753,deee,average,best,votes,productcomments,noteliens,notetitle,txtcomment,ldlcblue,pied,sondage,mid,pourcent,rail,wc,utilities,bodyarea,bodycontent,bot,util,accent,utility,self,controlled,wa,diag,iefix,minititle,minilist,miniprod,miniimg,minitools,collector,controller,attn,store3,stores,sup,storelocator,storebuttonarea,usertype,cached,nodisplay,spanacce,term,suggest,result,box1,results,megamenu,39,espot,pbold,31,espotheader,dialog1,dir,shared,partnumber,linkvalue,27,23,recaptcha,thanks,sent,closeme,sterling,pip,love,jewelry,xclearfix,zoom1,360,up360,view1,clasp,short,811421003,ued,field2,calculation,usage,should,updateable,cms,this,lmp,bumper,tabset,tab3,tab1,scrollable,tab2,tab4,collapse,accordion,10101,10001,100063,errordiv,java,lines,test3,purple,text2,pref,cent,iepopup,verisign,bbb,10046,811419504,esp,80353117,ring,low,monthly,month,filler,aco,monthy,plan,080353117,hreview,aggregate,dtreviewed,pager,based,100006,990955407,travel,hmbdg7,mwxqyzv5,jj,imadgycx578,pat3,imadgycxzxzpg2,tg,imadgycx6,hufufft,imadgycxnwzxf3,imadgycxpzkjagew,imadgycxchtatazt,lsthmbdg7,jjh5,qg9,hmbdgzq6,tg6,z5,hm3,hmbdny5,uqhdt6,hma,hmbdgjseu53,k9,afe,hmbdjr4,kucury5,tx,hmbdgdpzdvasuhgv,hmbdgdpzbhgtjwdx,uzysudbve,u4,gd6,ygbz,uhbt22,hmc,uk3,hbzxdx,hmbdggqdrbm8,bps2,hmbdn4,p8,nas8,zxfw,bullet,certified,section2,rvcjb094,vkyhkcji0,size1of5,buyer,size4of5,gray,report,abuse,524773eac9ff0,524773ead2e3b,524773ead32de,kfs,min,front,btn0,container0,family,chart0,kitsune,kib,outercenterslate,centerslate,slate,goes,shuttle,idpreplay,ma,caret,pere,solid,fast,dtcp,kds,klb,smooth,reftag,kdp,kods,eink,toc1,toc2,toc3,toc4,toc5,toc6,toc7,toc8,kmd,paragraph,kpp,insert,flip,smart,textsize,vb,goodreads,xray,ttr,goodreads2,vb2,collapsible,technical,ce,manufacturer,shopnow,fill,backtotop,ctukfnq,c81b10df0ebb43c2a1715ed8287b609a,forum,ap,b008,bqh1,intl,light,supplier,ko121,d031,90900,t0000,t1000,t2000,t3000,correct,fit,collar,k,158016,161725,42305,161722,161738,161723,161730,161735,161724,114329,95322,42310,78879,lt121,g013,60400,xs000,604000,s000,m000,l000,xl000,fastening,filling,futter,jacket,hood,pockets,shoulder,10160,10688,10674,10677,type400,style10689,style10755,b25242,a14,ebb202,a2131,be351,e2426222,c22261,a232325242119,e24262,b211,a232325242,001,136453,135580,136017,136016,142825,135636,136160,135622,135621,136443,136159,136455,advices,advice,pros,uses,142801,142800,142819,142803,142816,142821,142802,117097,80810,142826,142827,117102,162383,162385,158215,158217,158216,158212,162384,162378,158202,158200,158214,158210,specops,remarque,clients,lire,com2,on321,g069,q000034000,q000036000,q000038000,q000040000,q000042000,logos,port,minisite,cadre,ripley,4953,4949,barrel,style10613,style10012,style10686,style10639,style10065,style10096,style10050,id15067,id15068,id15069,id15070,colors4,colors41,country56,country170,country189,e212222262,a2214,a22,bf311,babc1,ec5212222262,c2123242219,c2123232,a222126202519,button3,spec,ops,mb,addpanier,com1,tous,les,commentaires,s3921,a00,8020036000,8020038000,8020040000,8020042000,pants,trouser,rise,d06,offre,el3,b004,hzxora,7848,block3,bpt,add3,screenreaders,asins,hzxor,aseller,hewnb,b006,kseller,hzxork,hewnbo,eqer7,debk,7671,vyxhjw8,ne2,frxs29,wa2,4224,4223,b007,i6,rqb0,q6,tb44,a3,kmw,ladnw0,asr,rmqoq00,otjtvo,r1,j32,gbzaoy7,ti,r10,oua6,dgu4,tq2,safrlu,dc045e241517483d9e9f6da52a36d80f,rylbrv0,qnw9,gx,ti67,d9,nqo9,v7,ajh6,isweev9,r262350,zfqyzzj,r296,essem0,zqrw,fpvly46,r7,ener3,ox1,roko,jgrn9,pflhfew,r9,pygenci9,ip4,tn6,xv0,vrf3,thatcher,4420,4429,4417,4421,4418,4422,4414,hinge,striped,sassafras,category8,5578,adsbs3,mseller,zh9,wk,eag9,s4,omnxs,9087,jk2,cd6,azm2,n9,hmzxrd6,1573,1572,aqmgqtq,h05,aqmgqws,b009,ih2,kpd,ruz94,ynbmxhkk,r59887,q8,yyzm4,rqd5,h9,x3,h8,d7c6e28809d94d0ca14c35647156da1c,r262,i39,fblm7,xd,r235,hz8,umrmdl4,qy39,im5,brsta,i9,a0,o0,ou2,r36,wqhatsg84,hn,r39,kapjdlb9,rbb,f0,ukvv6,ypyhv,r13,qn09,y4,tmp,r32,v4,ezedpxqil,jrd35,pkwap6,ev4,o8,dwyik6,y9,eeqb,ot2,co09,rto2,a162,njz8,laarqb,7473,wii,sseller,b0050,swba,0804161305,o86,0804161380,o7,swbae,0804162654,ssr,ksbvmkajvxm7,j3,zkm,9666,2976,2975,b0053,rgi,1616550414,rx00,ogseeap4,rwsr2,tl85,awe1,foreign,mkt,rexdgxasvubk4,r338,nck9,sry2,euax1,itanzfy,9435300af83f4a1aaba2a5768259a8de,po2655,po2010,po2011,po2905,po2906,po2907,imadggy3,zw3,rteez,imadggy35,vbsm2,hg,warrenty,seperator,freebie,lsthmbdgdpzdvasuhgv6,srjuz,hmbdgk22,n2,ue,hmbd8,yr5,fgcjnwxm,hmbdhpyzuy5,duwbj,zkzqbbbn,hmbdkg3,hyuncszhq,hmbdjuxhrenug9,zt,htkgdqvrn,hmbdjvnt4,nw9,yksw,hkgbhf2,hpkhchz93,hmbdjvntdtqbuxwt,hmbdj9,chrwtyy3,together,combo1,combo2,combo3,bind,srjuz11,lstbkpdgcg2,vqzakseydn8,i12,bkpdgcg2,vqzaksey,santa,srjuz21,lstbkpdgh56,wvhzgkv2,yig5,yig522,bkpdgh56,lsthmbdgdpzbhgtjwdx0,bqm35,bqm3523,srjuz31,sn9,uywvjltx6,uywvjltx632,uyw,rvnko0,yr6699,paoze,524773f28e7bf,524773f2991ca,524773f299656,wilkie,category9,4945,4868,4865,sugar,maple,winston,4509,4510,4511,4504,4507,4500,fashioned,fade,cream,soda,ginger,lemonade,lunar,oceanavenue,16471379,163080426,6507617,lid162381361,162381361,lid85621857,85621857,lid161735776,161735776,lid161643205,161643205,lid160977054,160977054,lid160961012,160961012,lid160867987,160867987,lid160761299,160761299,16275422,84421937,6489478,lid121306746,121306746,lid93757296,93757296,lid151067800,151067800,lid98619325,98619325,lid94232039,94232039,lid120255962,120255962,lid128418429,128418429,lid127877559,127877559,stylesheet,search,prev,last,help,alternate,csv,tab,rss,next,start,first,shortcut,icon,banner,top,grad,header,logo,get,proj,metanav,nav,mainnav,active,main,ctxtnav,content,ticket,title,statuses,type,status,resolution,date,timeline,summary,searchable,properties,h,reporter,owner,priority,milestone,closed,component,keywords,cc,branch,author,launchpad,bug,description,wiki,changelog,printableform,comment,number,change,threading,changes,ext,link,changeset,underline,citation,code,o,p,s,c,k,nf,bp,ne,altlinks,nofollow,footer,sitemeter,credits,right,facebook,no,js,meta,referrer,handheld,page,has,left,col,home,composer,expanded,fbx,webkit,chrome,mac,locale,fr,li,pagelet,bluebar,blue,bar,holder,slim,fixed,elem,head,clearfix,img,sp,17rdo5,sx,bc8534,jewel,container,notif,negative,base,centered,gentle,app,receipt,ui,toggle,fb,requests,button,flyout,hcm,228729,count,wrapper,value,accessible,target,beeper,nub,item,list,loading,indicator,new,small,messages,017fb4,mercurymessages,bottom,border,rfloat,actions,dialog,u,0,2,mrm,1sdi,1sdd,1sde,1sdj,1sdg,1v8t,1sdf,1sdh,scrollable,area,fade,mercury,thread,wrap,body,highlight,4kg,6,j,4kt,more,pager,stat,8y5,hidden,light,52jv,pam,box,white,topborder,8y6,primary,async,mts,mls,arrow,bkxmhf,77ad75,loader,track,invisible,gripper,see,west,notifications,c88dc7,fsm,fwn,fcg,33p,3,preload,33i,lfloat,typeahead,input,inner,text,1,inputtext,dom,control,placeholder,recherche,q,false,init,sid,focus,tinyman,s0,photo,rw,profile,pic,587620536,name,middle,voice,pages,big,padding,privacy,8,a,5,59fc,4,59fb,label,b,26y1,d1r,f5d69c,lite,26y2,8m,bxv,awf,awi,default,2a8aa2,awh,7,awj,awg,awk,awl,d,26y3,5cw0,5cw1,e,menu,account,user,navigation,pulldown,settings,compte,9,post,submenu,364230243647328,mrs,8o,ry,42ef,side,inline,fss,ellipsis,195189620513510,148315021960415,divider,chooser,replaceme,logout,form,center,7fw,7fz,f,7fx,shadow,global,contextual,layer,parent,toolbar,welcome,friends,online,layout,wider,news,feed,column,ticker,on,advertiser,panel,rhc,reminders,ego,pane,megaphone,stream,curve,liens,vers,grid,51mz,51mx,51m,plm,51mw,mvl,copyright,sidebar,dock,y,block,8s,6a,prs,6b,z,future,pinned,bookmark,24,119,mtm,mbl,5bsm,10,23,5142,mi,1dsl,509,4ki,i,4j,519b,9lb,true,51z7,dcbf27,2wr,92,c3b9dn,761c99,55d0,11,2yg,1zja,1zjb,1zjd,9w,9x,9y,14,mentions,11a,1b,highlighter,1c,textarea,autogrow,autofocus,1d,1dsp,52lb,19,1dsq,1dss,1a,16,m,1dsw,17,1dsr,ignore,18,px,15,jj,action,tagger,1dso,12,audience,widget,tour,context,13,selector,dynamic,normal,tooltip,1e,amis,suppressed,customimg,6d9984,radio,option,public,anchor,with,4dd2db,checked,1g,plus,moi,uniquement,1h,81e942,1f,fac183,custom,inputs,separator,insa,de,lyon,a85onw,a5e90c,waterloo,friend,special,proches,1i,10150807762900537,3eb1a9,1k,10150807762915537,10c448,secondary,mark,calley,1l,10150360325720537,8a6695,famille,1m,2d7512,cgc,1n,30233635536,limited,1o,33781060536,1p,10153253787110537,1q,10153237396470537,8a6be3,dynamics,1r,10152393821475537,a6b525,1s,10152114353415537,1t,10151685563350537,involver,headquarters,1u,10151680241920537,xtreme,labs,1v,10151464327575537,1w,10150916450520537,works,and,government,services,canada,1x,10150841938905537,hogwarts,school,of,witchcraft,wizardry,1y,10150811761730537,1z,10150807823755537,20,10150807823015537,21,10150807762920537,connaissances,22,10150852416380537,7907be,return,retour,42ft,42fu,11b,selected,42g,25,mbm,droppable,open,4748854339,max,5duc,4aab0f,5dua,217974574879787,sortable,grip,912553,mover,2344061033,2305272732,photos,links,edit,done,31,boulder,fwb,popover,chronological,ps,sort,intentional,c524749cd2539b4589425383,homepage,translate,redesign,large,headline,4ks,error,red,fsl,fcb,32,unified,story,generic,aid,650651497,524749cd34f4e3e90454832,actor,message,passive,pronoun,edge,line,collapsed,substories,704,sub,524749cd35b4f8317986620,substory,1633620075,10201663678467102,54ru,mlm,hide,always,show,mvm,attachments,video,thumb,theater,live,316526391751760,commentable,autoexpand,mode,like,as,saving,share,source,timestamp,livetimestamp,lock,084cf1,ufi,517747821,524749cd363432554242239,bianca,ip,tim,cheng,attachment,46,33,chat,27,28,nuclear,ordered,29,2e,phs,view,26,4oes,clearable,2a,50zy,clear,close,50,50z,2b,inputsearch,2c,5fzu,dropdown,up,2d,options,checkbox,sons,go,offline,34,mas,bookmarks,modifier,favorite,retirer,des,favoris,rearrange,other,subitem,35,groups,all,non,group,101921486539256,ece,2015,ajouter,aux,quitter,le,groupe,9algyx,6139e8,490794404332520,tc,promotion,2016,278839145571391,velo,city,spring,2013,a18466,379812535460260,b126e5,144540865703779,133005,192120460828149,uw,toastmasters,1796f2,324123884332907,596828820338122,bay,interns,fall,e6c9fa,6276183942,215dab,2g,197403857044094,supprimer,144067015711446,missmeliss,yoga,230259100322928,21d7d5,apps,expander,140332009231,espace,applications,4cf623,261369767293002,fil,jeux,1cd204,140472815972081,400915586638539,interests,below,threshold,developer,472317912827414,grocery,212408238882283,asdf,568138446535331,lists,fl,sections,2h,caret,1ea146,36,organic,displayed,thickline,birthday,8r,2063d3,8u,event,muffin,tracking,pixel,emu,end,37,section,mbs,ads,category,22c533,unit,6008628914150,4u8,id,524749ccaf9598543030033,5fxh,x,eventfad,24x,event1,5fxj,5fxk,5fxl,image,5fxi,5hwt,5fxm,5fxn,5h83,5h85,6011108908911,524749ccaface8126518664,5h84,6013908948280,524749ccafb177139078494,6010638297534,524749ccafb526f03567388,6008626701774,524749ccafb8b2d17685091,6011702564359,524749ccafbc17e20567700,6013835341280,524749ccafc218055865653,fan,652f03,38,thick,capable,8bbd90,scroll,prompt,lightblue,timestamps,activity,stories,clickable,1398782254,2409997254,29h,29i,29j,29k,token,1398000105,124024574287414,expandable,allow,click,verb,515179750,1215950267,christian,miranda,cho,josh,zivot,1173105921,100000068285572,174829003346,music,529526774,3d49eb,sticky,39,is,empty,pas,562v,2j,2k,2l,btn,92dd9e,2m,43qm,facepile,43qc,2n,4cg3,reconnect,disconnected,reconnecting,2i,3a,mtl,2p,3b,2q,r,v,translations,1iqqlu,c0eba4,outer,titlebar,xmode,row,tabs,56oy,bubbles,2r,2s,buddylist,56ox,4mq3,presence,5ayx,2x,2y,2t,4mq7,4mq1,2u,2v,2w,2z,3c,3d,100001482559524,6628568379,524749cd755b00941162629,robotext,before,58cn,sam,vafaee,ryan,herman,mak,scaled,582473678478712,1j,524749cd75cbe0813395167,same,524749cd75f846421333356,10201566908967925,l,aspect,time,503884739,524749cd763736a45451148,fit,width,10151916968634740,d60c37,n,524749cd766731a33736864,10200522663134578,524749cd7687d7a16381927,cover,10151716806844751,t,1656720607,524749cd76b519a80970611,word,break,10200712717174434,611751782,524749cd76d642481676989,wall,gxb,media,caption,desc,translation,eligible,10151584201751783,w,3e,posts,51x9,4lh,5h60,4po,personal,529n,above,drop,10153184911860537,instruction,instructions,notch,throbber,initial,overlay,changer,la,couverture,4rqzt2,25c6cb,submit,5ee5,5ee6,50zj,70j,70k,513x,medley,about,gs6,9rx,9ry,bxy,education,chevron,ma,profil,editor,save,cancel,les,sont,publiques,14dc41,42fr,42gy,offset,suggestions,place,period,recent,extra,contents,9a,log,counter,97,autres,f4daeb,preview,self,compact,transparent,capsule,1380610799,7u,3rbf,combine,3rbg,3rbh,trigger,two,mj,6dh,nw,4s3,mg,d7e172,yq,b09d45,nt,nu,d30,2f,4jy0,4jy3,4jy1,spine,pointer,3o,tl,5586213561492152645,pbs,303,51wa,50c7,54rt,3dp,subtle,truncate,vos,10153277480020537,wk,k1,5813ba,53s,width1,6i9,feedback,unsub,boost,link10153277480020537,5ce,5m,5n0,5d68,dxs,532667701949507885,uneditable,disabled,priv,unselectable,tagged,in,3f,3j,7883500060483000077,width3,10152172834085828,6638991624623799319,30,1xw,1y0,1xy,1xx,42xb,1xz,1y1,10200336490968883,3h,6188277185460800179,colored,quantity,10153271397335537,og,uq6,10153271397430537,link10153271397335537,3l,2o,2302112487671125920,10153265096720537,1x1,link10153265096720537,3n,3z,3q,3r,3s,3x,3p,3t,3u,3v,3w,4n,40,report,5an9,questions,5amy,70l,4a,57o2,71u,5c75,438034,5c74,57fp,57fo,70n,380562705353186,43,4b,5amu,ou,4c,5cf,4d,5cg,8g08g1,8e1c65,subheader,503z,5bko,4e,5gf9,51iw,54rv,d0067a,vp,513w,ug,4i,5k7d,4f,7ecbeb,uh,4g,ae4d14,4h,43f799,41,w90,44,45,collection,w8,55,tag,masquer,cette,invite,122,1g2x,42,1f8g,47,48,49,listing,hovercard,thumbnail,rv,3ram,4o,502104085,4q,22t,22q,22r,4p,52,4r,4s,4t,4y,4z,4u,4v,4w,4x,53,59,56,back,breadcrumb,journal,b5ac97,2012,2011,2010,2009,2008,2007,2006,naissance,subsection,highlights,2yh,2wp,307,54,57,2yj,3i,58,5j,unexpanded,year,current,5vf,5vg,phm,force,load,5i,ptl,5h,5g,5f,5e,5d,5c,5b,wayback,5a,5l,expand,older,5k,5xn,5n,scrubber,5p,5o,524749dd08cac1889048450,524749dd08d4b1070210556,524749dd08d894906953762,524749dd08dc39511186130,6008356894859,524749dd08dfe4b96165179,apple,touch,precomposed,152x152,144x144,120x120,114x114,72x72,index,unknown,window,nocss,surface,spinner,notification,dummy,pop,over,fancy,scrollbar,sm,leftarrow,clipboard,sticker,mixpanel,print,master,query,swf,object,hover,intent,google,api,ctl00,static,navigationpage,world,common,navigation2034,aspnet,act,script,manager,field,eventtarget,eventargument,viewstate,uc,lost,mdp,ctrl,bt,pnl,modal,popup,rounded,login,div,titre,lbl,adresse,croix,lb,lir,progress,waiting,cat,info,3063,dd,imag,3064,phon,3065,3067,cnso,3068,cnct,3888,logi,4193,mini,encarts,encart,panier,basket,proxy,vignette,bold,payment,amount,suggested,product,upnl,commande,supplementaire,bouton,test,wiewed,fermeture,et,texte,contenu,nom,produit,article,ajoute,qte,articles,transfert,proposition,prix,quantite,poursuivre,achat,bleu,voir,commander2,lbe,categorie,br,tbwe,client,state,txt,pwd,connect,accountbt,lt2,hpl,prenom,sous,defilant,content567,rfv,ddl,png32,chemin,fer,e0,e1,e2,qr,cph,content2747,accueil,minisite,category1,category2,category3,category4,apropos,slider,lamarque,presentation,environnement,social,twitterwidgetasus,topdesventes,topcat,thumbs,el1,rpt,ctl01,682a1508fa5943,prod,list1,dispo,legend,hl,detail,detailproductpopup,line0,p0,designation,accroche,caract,ajout,d05,price,tax,upd,list2,note,d01,list3,list4,recompenses,footercontent,content2823,filet,ftservices,ftdebexp,ftpaie3x,ftlivrom,ftlivrex,content2824,ftfaq,ftmodepaiement,bl,ftlinks,fthelp,h4,ex,dnmlinks,dnm,seo,content2822,url,fn,org,geo,adr,street,address,postal,locality,country,tel,marqueur,consultation,hf,countries,choice,lifr,libe,lich,pays,tt,flagfr,flagbe,flagch,ldlcpro,maginea,anikop,hardware,boutiques,franchise,bleulien,aide,nrp,pap,x2s6df8d,navigation1029,content985,samsung,flash,fond,anim,id2,produits,horizontal,ventes,mieux,catalogue,el5,11e6ca0136cd998,d02,ctl02,line1,p1,ctl03,line2,p2,ctl04,line3,e3,p3,ctl05,line4,p4,canonical,g,composants,pc,ordinateur,portable,tablette,tactile,smartphone,ecrans,lcd,peripheriques,pour,ordinateurs,reseau,wi,fi,cpl,systemes,exploitations,logiciels,livres,consoles,televiseurs,led,plasma,videoprojecteurs,hi,cinema,appareils,camescopes,numeriques,telephones,mobiles,gps,casques,audio,lecteurs,mp3,mp4,ipod,geek,zone,connectique,informatique,style,comp,bg,asset,12512,12085,11103,11971,catwide,introduction,promo,prodname,tagline,num,alert,aside,formulaire,pass,buttons,register,password,1of3,2of3,3of3,foot,premium,paiement,securite,transport,icons,twitter,pingback,uri,wlwmanifest,blog,filter,travel,inspiration,we,the,ae,meet,cast,aerie,module,searchform,h2,follow,tertiary,find,us,instagram,pinterest,alt,to,mobile,filters,portrait,accordion,archive,filtered,results,4300,publish,format,standard,hentry,inspired,bloggers,fashion,featured,full,size,ajax,do,it,better,classic,blazer,details,hero,4491,aeriesupports,supports,bright,pink,be,breast,cancer,awareness,ribbon,profit,behind,scenes,at,build,4465,aestyle,how,wear,roundup,4484,fitness,associates,aeo,performance,fridays,study,4448,denim,jegging,3364,styling,tips,styled,by,lauren,sweaters,4410,weekend,yogi,4253,aeoperformance,4389,thedreamat50,times,square,dance,dream,4358,jeans,3361,preston,real,rugged,4383,boyfriend,4356,lens,store,design,4319,family,support,ambassador,julie,4217,diary,breaking,raw,4249,am,runner,4144,4315,nyfw,seen,black,jacket,4297,models,glam,grunge,4276,three,ways,4281,look,shirtdress,3367,prints,3523,rise,skinny,jean,3575,bootcut,4205,guest,blogger,popsugar,4208,4113,4176,genetic,counselor,amber,3944,seams,stacy,senior,designer,4098,lookbook,4101,4094,college,fashionista,freshman,week,4134,robe,aeriepretty,best,sleepover,outfit,cute,pajamas,pjs,everyday,moments,girls,night,3565,straight,3528,artist,4066,festival,guide,summer,made,america,3366,3370,sharp,shop,4012,contest,uncategorized,project,your,life,finalists,3524,kick,3566,original,3982,4061,shirt,basic,3908,4030,3988,laura,legal,intern,former,teach,for,teacher,3854,rachel,assistant,3996,clothes,lounge,must,have,seamless,thong,what,guru,4004,crop,tops,one,four,3359,old,cool,3972,lingerie,coffee,comfiest,sweatpants,underwear,hannah,multi,way,lightly,lined,bra,when,getting,java,please,3907,3970,introducing,lexi,pushup,pillowsoft,3966,lindsey,3900,3870,volunteering,pelotonia,recap,3865,3867,jewelry,stack,3843,alec,adventurer,3372,fleece,3568,boot,3529,boy,3723,diy,shoes,3836,angela,3855,baseball,3665,videos,playlist,capital,cities,exclusive,interview,part,3766,sincerely,jules,3758,fragrance,vintage,1977,3554,chyanne,skateboarder,3744,3539,3522,3746,safety,supply,chain,3788,check,out,our,national,campaign,art,3751,turn,into,shorts,3760,lollapalooza,3542,basics,nude,bras,colors,solutions,different,great,under,tee,3745,katies,bliss,3569,3342,ashley,associate,buyer,3714,3632,kickoff,3561,christina,caradona,trop,rouge,3601,anthony,musician,3391,habitat,humanity,volunteer,3617,rock,walk,rockyourwalk,launch,party,3611,make,history,learn,3613,arielle,3368,feminine,moto,3612,3592,natalie,off,duty,3527,3570,3514,3582,factory,merchandising,4150,photoshoots,3406,shuhei,3504,web,andrew,job,graphic,communication,roche,graduate,marketing,pittsburgh,3503,3437,bailey,photographer,3499,partners,ovarian,health,pinks,assess,risk,tool,chicago,half,marathon,jocelyn,from,philanthropy,pal,program,team,womens,3513,coming,soon,3360,3369,3498,little,dress,3496,taper,3448,3423,round,3424,sarah,storyteller,3354,3299,3373,com,nydo,assistants,3396,human,resources,operations,3376,kelly,writer,3355,chino,trend,3347,relaxed,3339,3863,3329,merchandise,planning,allocation,finance,3214,getaway,las,vegas,3297,3314,emily,3200,3176,young,3250,brandon,3177,briana,3189,damon,3183,jacely,3184,nikki,3180,leanne,3181,3178,kelsey,3185,brigitte,3179,katrina,3187,luke,3191,jacob,3174,quinci,3173,elora,3175,abbey,3190,cameron,3188,seth,3186,nathan,3182,hanna,3252,frankie,3213,ready,3194,3295,foundation,3204,3232,shoot,3205,3193,cape,cod,pagination,numbers,dots,root,branding,rc,international,currency,dns,prefetch,mbox,holster,brand,not,signed,sign,quiet,bttn,standoffish,success,redirect,values,email,subtext,fields,decision,forgot,strong,clearer,credit,create,aerewards,my,bag,etc,site,placeholders,magnifying,glass,font,mens,cat4840016,clearance,els,order,flag,wide,frames,slideshow,aehp,carousel,slide1,slide,btns,wsbtn,her,replace,slide2,bundle,bundle1,qv,bundle2,bundle3,slide3,js40,guideapp,thumbmenu,ga,1010,3thumbs,copy,maincopy,subcopy,tmpl,onav,aerie1,aerie2,aerie3,ctabtn,standalone,signup,shopkick,sitemap,gift,card,balance,gc,parappatherapper,fs,free,shipping,total,add,power,level,condensed,messaging,items,disable,select,clip,set,table,headers,cost,enter,review,checkout,discount,codes,discounts,chelp,apply,msg,internationalized,element,continue,shopping,or,ie,ie6,lte9,lte8,lte7,os,ie7,ie8,ie9,en,member,v2,v5,responsive,background,v4,pagekey,nprofile,slow,config,a11y,skip,http,12224,18532124,child,voltron,vertical,scope,people,jobs,companies,edu,inbox,autocomplete,ghost,term,advanced,18532125,utilities,gem,unseen,connections,simple,addconnections,securely,via,lix,fallback,providers,gmail,yahoo,hotmail,defer,32126,split,posting,language,qh,tours,18532127,18532129,business,ad,slot,hdr,exp,hp,nus,endorse,endorsements,18532131,18532132,upsell,organizer,marquee,following,teamlink,insights,exchanged,ganz,discovery,browse,map,network,overview,insight,comparison,inmail,18532133,cust,svc,utility,lang,ms,cs,da,es,ko,nl,ja,pl,pt,ro,ru,sv,tr,request,18532135,local,file,supported,mref,gstyle,direction,undefined,gb,gbq,gbu,gbzw,gbpr,gbq2,gbqf,gbqff,gbq3,gbq4,gbq1,gbqlw,gbql,gbx1,gbx2,gbx3,gbx4,gbg1,gbg3,gbg4,gbd1,gbd3,gbd4,gbs,gbwc,gbprc,lg,ut,ty,md,xl,xxl,gsr,ctr,viewport,pocs,pocs0,pocs1,pocs2,cst,csi,mngb,gbzt,gbz0l,gbp1,gbts,gbtsa,gbmc,gbsb,gbsbis,gbmcc,gbsbic,gbmt,gbmh,gbt,gbqfh,gbqfwa,gbqfba,gbtc,gbsr,gbtn,gbgt,gbgtd,gbnh,gbm,gbmsgo,gbtsb,gbg4p,gbmpiaa,gbqfb,gbiba,gbmtc,gbp0,gbmpiaw,gbxv,gbxx,gbkc,gbe,gbkp,iflved,cam,qn,rs,wgjc,wgjs,wgju,hcache,bpcis,lga,hplogo,prm,ftby,fll,flls,flrs,publisher,flci,ecs,css0,src,badges,noscript,notify,portal,genu,topbar,hlinks,triangle,reputation,score,badge3,badgecount,lsep,hsearch,textbox,cbt,hlogo,hmenus,mainnavs,tags,users,youarehere,unanswered,askquestion,mainbar,badge,general,hierarchy,cell,multiplier,badge2,badge1,earned,faq,newuser,tree,toc,mb,categories,footerwrap,sites,license,flair,svnrev,warning,dno,msie6,msie7,msie8,shortlink,html,front,logged,sidebars,node,1503,cnaf,caf,accessibility,21259,21292,21291,21269,21303,21295,searchblock,searchbtn,solr,textfield,you,required,heading,infos,display,skin,views,cycle,teaser,frame,odd,even,customer,subtitle,baseline,cols,region,theme,bloc,contextuel,gauche,acces,direct,inner1,floatright,intro,actu,single,nothing,bodystyle,lire,aides,jumplist,deco,02,twocols,inside,outside,debug,ostyle,srp,tbo,gac,scont,easter,egg,cnt,mw,sdb,subform,bst,hdtb,sum,mitem,msel,qs,cayq2h8,ac,q2x8,ab,ctls,ctl,kbtn,abar,sp0,sp1,opt,dropdownitem,dropdownlnk,td,menus,cbuq3,b8,mn,cont,gp,hd,dwn,arw,itm,sel,cdr,mml,minl,maxl,ktf,mm,min,ksb,appbar,extabar,topabar,tnav,wrp,sbfrm,result,stats,botabar,ucs,gko,rcnt,er,leftnavc,taw,med,res,topstuff,ires,zhfh,ut30,tk4,yci,dg,rso,altcts,kv,b0,cw,q7,b0w,aa,cc0,qq,r8w,cdaq5hkw,toggled,cdeq5xkw,slp,st,51,b1,cduq7,aq,cdy,dk,q5hkw,q5xkw,60,b2,cd4,ag,cd8,ceeq5hkw,ceiq5xkw,68,b3,ceyq7,aw,ec,eo,77,b4,ce8,ba,cfa,cfmq5hkw,cfqq5xkw,86,b5,fg,bq,fk,fw,94,b6,cgaq7,cge,cgqq5hkw,cguq5xkw,103,b7,gk,bw,gw,cg0,111,thb,th,apthumb8,chmq7,ca,chq,chyq5hkw,hc,authorship,rg,sep,127,b9,ciebe,owd,ak,ciibe,kkf,ciubeoyzm,ciybe,oc,zm,smli,gl,bottomads,extrares,botstuff,cljs,iljs,xjs,navcnt,navend,csb,gbil,cur,ch,pn,pnnext,bfl,fblmi,nobr,sflas,fblsh,fblrav,fblqf,bec4,gfn,rhscol,rhs,bfoot,ntfp,nyc,nycp,nycxh,nycx,nycntg,nycpp,nycli,nycm,nycprv,nyccur,nycf,css1,xfoot,css2,lfoot,cjabem,lt,fluid,navbar,columns,down,gray,parsys,dart,jcarousel,mycarousel,replace1,rep,youtube,iframe,flickr,call,263349994029989888,cocacola,pac,disclaimer,toppage,plusone,desktop,laptop,periph,software,tvvp,hfhc,phcam,ballav,liste,bonsplans,ahardware,titrecat,bonplan,gris,clair,fin,proche,marge,haut,adesktop,alaptop,aecrans,aperiph,anetwork,asoftware,atvvp,ahfhc,aphcam,aballav,10840954,10840955,10840956,40958,10840958,10840960,10840963,connected,10840969,10840971,oldie,screen,reader,authed,gatekeeper,shortcuts,read,readerapp,digg,10151680194663463,b219c3,outgoing,enable,504123462,2b6e01,suggest,poke,remove,mal,1dsv,identifiez,personnes,dans,votre,publication,3qig,4949083170120937410,ewelina,10151876114280751,6007248613684256335,2a1e74,camille,veloso,trower,teya,zuzek,diogo,morais,ulhoa,caires,10151583536176326,6749490854436672418,mhs,61d8d1,agk,10151794619443463,3647471755361091796,10151851227610751,shares,afficher,partages,3k,3g,w91,1ln2,8t,ph5,5d3,nicole,jiang,misakura,tsukimoto,zack,bernholtz,3m,3y,6009326919299,524771f2cb5e99c81357487,6008388863150,524771f2cb6883652788867,6013217507455,524771f2cb6c49d74441362,524771f2cb6f74023215343,6003917603157,524771f2cb72c5c77568588,57x57,assets,conduit,xhr,socket,env,production,macintosh,vis,invertocat,mega,octicon,github,tooltipped,downwards,mail,unread,command,repository,1d9ba8a55d73e03ef8a8226942287d3c38c17255,minibutton,this,repositories,question,explore,repo,tools,organization,issue,opened,pagehead,repohead,instapaper,readability,subscription,eye,watch,included,subscribed,unwatch,mute,toggler,starring,star,starred,upwards,delete,unstarred,fork,lighter,facebox,git,entry,pjax,loaders,leftwards,issues,pull,book,pulse,graphs,graph,only,clone,zeroclipboard,clippy,ssh,subversion,rewrite,device,cloud,download,switch,branches,commitish,filterable,bucket,css,final,path,blob,rightwards,finder,bubble,files,commit,tease,sha,gravatar,contributor,relative,updated,directory,447b7147e84be512208dcc0995d67ebc,ecd84a737e4c3ebe810c6bcd09d288432bcee9b6,age,743b1adbf37db12e16e01ef62a6f7d72,e69de29bb2d1d6434b8b29ae775ad8c2e48c5391,f219bfe69e6ed201e4bdfdb371dc0c9b,71a836239075aa6e6e4ecb700e9c42c95c022d91,bdf3ecebd8379ca98cc89e545fc90899,ea38021731a76cf6788995863027e46f9369e613,de6dd4b4c889fe0882cfd3f6df5aa451,eeab00cfae6b4fd90526789fab87c45a8e1b4a6d,ea8aaf2b76cffeafd45054ae9c1ff347,e4c63a99aef330ff629d1a5cff6cd9b14b269693,backdrop,fullscreen,suggester,exit,switcher,color,dismiss,private,f78ec2e4cb80b815c1d10dd43c15959fa5c25c3f,person,carrier,website,classy,capped,overall,commits,percent,mid,compare,here,cd6c8f619fe02d9ea5d283cea1dfdefc,2536644036abd08a48b5e95a25c4cf44d1ad174b,8d777f385d3dfec8815d20f7496026dc,2d16c8e03e3c25bf4d58819716a88919570e159f,e6ec529ba185279aa0adcf93e645c7cd,3cb0dd79e68c5d2f0a373c84e8c647a6a23b13b7,a084b794bc0759e7a6b77810e01874f2,c0a8fbd362557396b038cac19cffff9e800fbf2b,04c6e90faac2675aa89e2176d2eec7d8,ec6686ec2bce9c3a9f6a954c78ef562eb1776e42,readme,announce,markdown,pagetop,comhead,yclinks,hyperlink,2777802,everyonelovesstackoverflow,adzerk839474021,votecell,vote,favoritecount,postcell,taglist,vt,short,signature,relativetime,gravatar32,comments,answers,answer,2777872,accepted,answercell,17379989,clean,adzerk1630303388,12903031,20549192,20587138,2777863,16862473,edited,yes,17059211,18481101,20159463,24941014,space,wmd,draft,saved,community,discarded,fkey,discard,notice,votes,greeting,ar,key,qinfo,lastactivity,bulletin,related,spacer,adzerk1426905366,hireme,answered,prettify,prerender,mlogotype,logotype,river,rp,se1qbb6,ktjgcez,kudo,able,filling,masthead,readnext,flank,userbar,linkout,contact,univers,controller,mises,avant,homecontent,homeleftcol,content592,content4306,content4304,content1055,actus,content3900,content591,homerightcol,content594,zoomsur,c6078b6a532bc8,zoom,sur,content596,seealltitle,content1070,topthumbs,el3,ec074268d3e16f,content1071,10e9bc6a00b1f3c,content1072,ctl07,6dd9c78cf1f5b7,fbk,twr,gg,newsletter,upn,subscribe,rev,rkw,vcard,cse,1i0ge3bje78m7,homebplans,10540,ntl,nlt,feeds,shops,6795,wizards,homewizard,4871,agencies,homeemport,10542,1of2,emport,tom,ecologie,2of2,garanties,fianet,18451350,18451351,18451352,51354,18451354,18451355,18451356,18451357,18451359,18451360,18451361,18451363,mf,lnk,11964,12629,3445,315,caracteristiques,filtre,superfiltres,reinitialisation,sf,ph,super,marques,marque,brandasus,ofmatnet,brandmsi,brandsony,brandacer,brandapple,dell,giada,brandsapphire,filtres,filter4915,filter11819,filter4917,filter11824,filter11825,filter11823,filter12924,filter12073,filter12952,prods,plc,nombre,type1,type2,comparaison,comparer,fleche,colonnes,tri,colonne,asc,l1,carac,disponibilite,l2,notes,clients,avis,op,spec,ops,criteo,numkey,legendes,legende,stock,etats,1488917288,www,core,32x32,134871288,c4,2111574455,channels4edit,1602409162,onepick,ltr,537,aligned,watch7,hitchhiker,enabled,flex,cookie,sb,acct,sw,hid,id1,yt,gutter,displayname,valign,uix,align,upload,sessionlink,flip,creator,dashboard,vm,analytics,consolidated,terms,bidi,sandbar,shade,column1,column2,gaia,clickcard,multilogin,naked,sprite,spf,alerts,channel,vve,nolink,tdl,toplevel,cd,jd,mv,a1,je,pi,usx,vgf,later,playlists,subscriptions,subs,quick,sorts,aria,46004028381,23132772259,68076615556,channels,scroller,matches,cq,p43,zl,7a,t5zm9oah,s8,wa,uczc45s,ndkq,sq9,bwtt5lf,a4o,zf4,al,edly,zwbci0c,cpx,fnsib0,d2,a3,y47xv1,hhw,cut,xfz,lc5wr,v3,y0w,cplkk3,j5wr,el0,nrth,hjq4,bf1a,dp,isw8,oxq,h4ki2,kg,cp,z5q,uqp,w4h,w4zdfu,bx,msja,ucsau,gyc,a8u,yza,ivg6,mesq,uck,hi7,jm,lz,sq4,wnh,skg,xd,yat,qd,vl,us7,htz,xa,gzn,yn,mn3e,qqj,gkn,yf0,egu,f1,ci,ye7,ei3,cwg,ur,kf,ua7e0,z7,tv,bfq,ucc552,sd,3nyi,tk2,bud,uz,ds,yo5zp,jk575n,xg,mva,ucu,ki4z,y5,sqr,aj,bgj,cyg,hlw,fab,dw,psbhzx,vw,ind4cuy,so,hnq,yvhk7tw,ucl,i5yd10a,jx,sel3e6,ml,gz,gbfhd,fsj,p1yf,ju,ep,wg,ucuk0,hbib,m2c4vs,phk,yy4w,cmv1,clt6,zc,fd,tjm,hxa,r9,xe,ucr8l,bqrhx,rrfwk,ib,ucmq7,izs,tyk,e5,fv,fm,hg,cmu,zegcx,omnf,zw,wnw,l10,pm5m,oe,ol,xw,ucmj,oksb,ue,wjzw4,afi3tig,trt,a2,ly,w7gie0o8h,y4ef,cm,nx1,d0y,xk,p7,vf7s,cywu,vf,kcg,ip0,h176a7,qx,ww,ucbx,wyg,rw36,v52,rx,aw5jzw,ciij,day,kcwv,hz,acc6g8,tw,uc2ewo,iklu7bo,jq,oq,uci,uco,ge,fig3rr,djhm9,zs,ce,ei,he,myf,u7k,mp,giz3u,cl,qqbsyn,rr,lsnfu3vjxv,cnn3,gagke6k,g4,fxy,ydg,cu2,fqe,jmyx,vehs2,pf,zz8sw,iw,ik,g3,xi,fzs4,ri,jfvw,wiqyd8,mx,cad,o19k0g,hy3,ljkd,c0,grf6,y5b4w,yrtx,jy,qu,fx,hn675,ucx0,cz,ii,teduaany,ebo,rfw,jzn,uc2,ahi,gzv7,olfhicl,pnn1b,cpc,rn,zx8kot,qb,kmo,sj,gr,cgjq2,jgx,jqk2,cged,bi,cgd1,im,cf,jlx,xaikq2r,hr,kq,ct,o1,zh,t5,t1pfv,ufpa,cdi2,se,dq,jg,k5,oa,ni,pfg,uiru2d,ogt65n,a0,e9,cu,pqy,cqtsz6,wrke,wxu,ucn4x,zy,x5,wwba1,nvmh,na,cba,kx,bhm,myu,ig,uc81h,i5e,eb,it3s3,qp,uc6,tef3,hgd,futxr8,if,oj,uc8e9,ulhyz7oz3x,djo,km5,qe,rt,mt,txc,fe,ac11g,cuqzwf,aizon,dz,twib,i6ltg,ctwq36vgp,hm,mvt,rhw9,ucm,ov,qgbc,u2e7,ea1d,ot2,ff5i,ub,tns,ix32w,fc,kouc,uceh3n8zq3,tf9,d17,mzoj5g,uc4b,syy,h1u,jx6on,o0okswn,ucf,jz,gqv,xn,mijn8j,guh,yw,ch2p,mlme,ckruyp7bu,vy8,ng,cc7o,sl,jl,n9,st3,r74u78,pz,wn8,xht,hx,gkwd,qbu,ucsoaidc9,zat,x3a,am0,yv,m6v,uc1f,ogqy,umwi,bd,bk,nq,cvn,qby,y6g,tzp,bhlr,t0,qg,builder,management,player,unavailable,height,tray,branded,checklist,gh,tip,todo,editable,picker,shelf,adder,epic,dragdrop,working,visibility,ucy30,jr,sgfh,yxa6i6x,x1er,lockup,qualified,ellipsized,verified,unbranded,unsubscribe,mask,il,zk,efg,ldw,ck99,sg,zay,sr,ajsm,byz6v,yi,gm,x0,uc9g,fih9rw0z,nck3,zto,qy,uczj7m7,nodqnu5,atg8e,gt7,x90,au6,bv8rf49,m6,hjzr3,gqxm24,vd,aj5,styleable,checkmark,destructive,subscriber,visible,opacity,uploading,devices,nakedicon,circled,profiles,activityfeed,listen,template,uploaded,controls,trick,subnav,50425213737,60327639786,data,dismissable,rec,zax4,emp,wmle,ew,r3rxc,29360394967,dismissal,notices,uploads,zawrdkur,mzljwfx,p3c,ev,ehei,65763927584,tile,hzi,ei29l,194,ux,contextlink,contains,addto,185,76599163327,6oe,ca8,kfw,61,37524766838,adfnw64w,ny,wm,ibg,lvbx9gc,18304785099,zp,din,154,44326922211,oh0m,o3,fz2,yk,412,84449731940,za,ta,yntx1k0,yrh2l,wc,ws,38503872279,lqs,ey,uxk,otb,fg55s,nyde,pqr,gcs,sidethumb,length,deemphasized,48967641268,af,ris,3o5,qo9j,z8,73186446242,s6x,rlz,57160530649,uaw,vrbvvq0e,i7qh,rv1g,93139151045,zas,dbh,m1,eh,j4,lu,pe,ht11y8,65541148640,vwi,akz8n,wn,c8,rj,mq6g,54034617718,66,zremj,uc4,570,95337569364,zax,pcsz,tg0i8gs,y4,d4i,34081272587,ra,co0b,iqm,vctl66ww3rn,sa,61351590802,ura,nb,vc,mld43d3,jyxe,77144076640,zaq01,kc,nv7zdf,oi,hcfewq,czo,39947112929,pd,fpr5,qo,uith,hi45,76767163911,nrhi,f51e,wlwp,xu3,vi,d3,64643329646,abvj,l6,y8b,ys,qwr,sk,a9,ot,87936997230,vx,ukcy,y8,yp,10238681708,afe,g9,yh,kpnay,uiua,tb,gq50,42831291273,ld,69550759417,jj1,f4m,eqz,ud7us57c,21574707799,actxif,oln,zw9,ld7ljo80,5929175239,zarzox,sqr1ir,pb,sz9,zf,78434952816,ab2,dgpod9,yzi,s4,f3,lzh,xvty,72759116469,yb,vlh,tyl8,jez8,3411913402,ux9vu,t07,v6,q2,hz7g,8188150271,pickers,safetymode,reverse,questionmark,reportbug,shared,1142712931,1846024665,mod,11966,12200,10340,remember,pseudo,span12,feature,indicators,advantage,examples,company,span5,offset1,prominent,bullets,phone,flush,demo,glare,play,pill,span10,muted,span6,span4,offset3,scrawl,creating,class,position,pdf,tablet,subject,checker,span3,computer,science,engineering,math,physics,economics,chemistry,psychology,biology,bootstrap,override,span2,50pct,spacing,175pct,polls,statistics,founder,fancybox,amazon,overflow,techcrunch,backup,nyt,npr,cnn,money,forbes,huff,atlantic,splash,example,classes,features,testimonials,prof,david,stacked,course,professor,institution,facts,surjit,chandhoke,robert,neer,collie,amy,gottfried,presley,martin,andrey,liscovich,stephen,van,hook,kenneth,norman,chrissy,spencer,klara,grodzinsky,john,ousterhout,sean,laraway,jarrod,hayes,dan,garcia,benjamin,antieau,beth,ingram,robyn,raschke,lorenzo,sadun,greg,morrisett,wagler,michael,koelle,anton,betten,steve,hooser,span9,investor,logos,michigan,georgia,tech,cornell,stanford,sjsu,florida,berkeley,09e94b8f612271d222dd9fd853df3172a6290562,avatar,participation,quickstat,contributors,danger,jump,linejump,256x256,hot,srdrop,choices,flat,random,tabmenu,pref,searchexpando,infobar,moresearchinfo,showmore,me,rem,recover,sponsorshipbox,sidebox,morelink,goldvertisement,thing,t3,1nc1dx,rank,midcol,unvoted,upvote,likes,dislikes,downvote,domain,expando,selftext,t2,a0m09,userattrs,subreddit,clearleft,1nc1pv,6isoj,1nc1qk,9qpy2,1nc1pb,cizo9,1nc1ny,dbffd,waea1,promoted,promotedlink,373,156,35gvu,sponsored,1nc1ow,98rc6,1nc1rw,66qhn,1nc1ta,7irxe,1nc1sg,a5pa2,interestbar,interest,nextprev,hoverable,spotlight,sitetable,linklisting,1nbqso,3390,1181,3bz46,1nbpjs,2562,706,50l1a,1nbkhu,9204,6675,8v38x,1nbj8h,11679,8409,55rvk,1nbh2d,9355,6656,9gfrp,1nbna6,linkflair,2134,677,daos2,1nb6jf,16565,13366,37xdm,1nb6jl,12859,9987,9j55j,1nb6xo,10188,7734,cfxfi,1nb5yp,3454,1420,6w3iu,1nb8m6,2381,765,3hd66,1nbivl,1040,cbz1q,1nb2p7,11359,8917,85bci,1nbbyq,1427,284,9ucv0,1nb1jt,7476,5078,d2g5y,1nblk8,5681,4768,a0xnf,1nbaam,1553,514,af0pe,1nb8qt,1887,761,linkflairlabel,7398g,1nb2wh,3720,2021,6g21v,1nb3an,1872,645,961zc,1nb4n9,chem,329,buem0,1nbd66,345,35qsh,1nbhcp,78,d30e8,1nb57e,6375,4618,3ujoy,1nbncb,2267,647,67jo9,vert,buygold,bottommenu,hidecover,divide,registration,reg,taken,available,bad,username,del,emails,passwd,passwd2,match,capimage,captcha,cap,ratelimit,vdelay,orangered,wrong,pretty,preftable,prefright,langs,some,hu,hy,el,uk,eu,lv,fa,nn,debuginfo,phpbb,viewtopic,headerbar,inputbox,button2,autologin,activities,adv,topics,breadcrumbs,navbit,rightside,topic,reply,forum,tiny,p18013,bg2,postbody,coloured,postlink,postprofile,profile18013,back2top,p18019,bg1,profile18019,p18028,profile18028,p18029,profile18029,p18051,sig18051,profile18051,p18060,profile18060,p18064,sig18064,profile18064,p18066,profile18066,p18068,sig18068,profile18068,p18072,profile18072,jumpbox,dark,linklist,pixelgoose,10151757277955751,escape,hatch,minimal,51sh,noborder,5109,509850750,5108,5166,43q7,luczko,chinmayee,rindani,caitlyn,howe,keegan,skoretz,ian,muirhead,104638258631019526,fcc10151757277955751,commentaires,flc10151757277955751,10151727092325751,6q0,wj,rob,fcc10151727092325751,flc10151727092325751,8999826006559675787,10151563352700751,fcc10151563352700751,flc10151563352700751,7664642558286608100,10151508896950751,fcc10151508896950751,flc10151508896950751,3966206778347526792,10151508702680751,fcc10151508702680751,flc10151508702680751,4jul,93k,5rz,4q3,57t,4un3,4q4,ph4,98,gx8,22s,5fgb,524771f80e5767d75898076,524771f80e6099933417683,524771f80e6406925866690,524771f80e6745d01013662,6013217514655,524771f80e6a83832825889,19157222,19157223,57225,19157225,19157226,19157228,19157230,19157231,19157232,19157234,13537,11965,12138,cache,brandsamsung,arnova,supplementaires,brandhp,brandtoshiba,toutes,signe,filter11923,filter14028,filter11905,filter11927,filter11963,filter11982,filter11991,tagfilter,sponsor,synonym,hug,face,notif490794404332520,60cj8d,40512f,publications,a72ed1,1d6bdb,gear,partager,signaler,405b61,margin,members,08a66e,pending,reported,mall,432357356803765,gysj,161472617268343,112486355503140,633556056655850,176499135752052,486579,647f2c,2vd,a4c2bf,sky,661897143,528961653849128,1592804875,528686877209939,5g24,5g27,5lig,14be1c,5g26,5gta,5ini,5inl,5inm,1217080683,528326053912688,4f644c,708665653,633461612,543366422,6009728740905,52474a51f1fbb4003763220,eventstr,5hwx,52474a51f20b98282218616,52474a51f20fe2e61388037,6009502881739,52474a51f21435932244634,6010094334181,52474a51f21818646851939,52474a525703e5d57711273,100001656091724,527514683993825,527510013994292,526758957402731,100000038272556,526846800727280,4c2f66,526745194070774,1168636618,526292514116042,100001548520632,526262417452385,524095917669035,350685531728,524429414302352,4k,4l,4m,glyphicon,11968,12216,cas,flc,navigator,authentication,fm1,accesskey,warn,bevel,80,finish,2893814699,572364312,videomanager,2249229234,metadata,admin,ytg,hh,1col,templates,bullet,creation,shown,myvideos,notifs,beauty,85327669621,newest,42226702420,viewed,43941913802,2038851886,unlisted,90516425758,31717414778,revshare,12884068610,notrevshare,refresh,89460870955,89326099647,monetize,69108330017,subheading,98264762143,68878898334,38324013442,29198354476,17534903439,84599174853,28113995605,editing,combobox,confirmation,confirm,formats,helpable,trueview,placement,important,instream,bulk,ids,85898552752,30848684691,45966949485,15720931049,67930225461,54429900805,76340748733,75692467546,60580060328,19661354143,39870103929,88199988357,80142816560,15721109212,setting,certification,fieldset,embedding,location,popups,canvas,longitude,latitude,altitude,monetization,ratings,recorded,formatted,syndication,usage,policy,responses,selection,edits,resource,metrics,metric,published,localized,224,61206376990,51656661323,enhancements,9661115085,75923414983,annotations,64008868372,captions,94819370993,promote,83829086991,acknowledged,monetized,9584326908,68788869499,7758720679,44833669811,8300867368,54721673354,43833474145,54622355449,34344739135,69138165538,70605136269,22939144747,39344756664,58898318884,92266041905,8220160979,14042989141,199810089,23695110128,38993741068,78555042010,49292010924,27566355564,83788949829,9733552347,49336158178,72391277548,16228258240,56962258184,16670088753,44767866662,10186370736,22423377173,8927348210,24285330707,84934643059,11061983081,lif0,nhpwc,49836168326,77767960724,38203610636,35081609360,72222324896,74503940559,660277147,95856682837,2711993664,3932038103,2492626043,localdatetime,1505764296,communitytabguidedhelp,2510836485,deputy,128,picture,subtabs,lines,counts,league,chart,accounts,favicon,bounties,offered,span,warm,userfilter,interval,browser,gravatar48,notif278839145571391,envoyer,un,au,57280819428,182434171936676,110354088989367,198104950297687,428767300564783,629985587,408207829301188,609040183,406422276146410,5266be,525721043,402583133196991,archiver,52474a5890a106786118808,52474a5890b541291756975,52474a5890bcb8287865207,52474a5890c2f1f69519947,52474a5890c8c9206290071,52474a58c93188452457387,401383699983601,4d2fe3,c25d36,734c7f,100003039249543,401066463348658,675855362,400915696697068,400934990028472,400234993431805,400234720098499,547585812,399706866817951,399632273492077,399749000147071,10202074991264133,1467672435,alexey,komissarouk,freddy,chen,onkur,sen,52m,3lt,f325a2,52nf,3spg,36323e,7911499132234901613,10202256040470250,4114744169149557608,10202225865995907,1056792441799628446,10202219549157990,7190892588619114639,10202213279281247,c0fd3e,artwork,524771ed45bc42b10955776,524771ed45c547505651701,524771ed45c952370003865,524771ed45ccf6f10894728,524771ed45d165642236416,563247890396675,100001344081720,z2,427u,4026805274981385628,vivian,573191916068939,6022453954536004896,1y2,1xv,1y4,721924394499910,399208105596073024,572558996132231,2302753751154781840,9344c1,10151690945063367,5028255598561723419,562747397113391,8408912544736422830,571708356217295,524771df2a6f78203109038,524771df2a7948890042597,524771df2a7d34d52671648,3272310165,37235879768,24649225687,26248244964,cqyku6,kofy1n,v86yh9,r8n8,ucn,mbyp,lgk4,gtfw,uccv3b,igz,h800,sk0,aod,ky1g,ym,a2v,hng,glx,dwef,ftg,cy,uxbi,wao,lkui,dv,ct8,q7ztu,lr,prehlj8,zuu,uc6n,fpj9,htcz5t,n3,rm3,ha,phy,exfcaq,jb,kc3,ho3c,uc9av,tdb,so5,tvz,av,individual,pyv,soyn68,fp4,27426032539,20766945861,zwgi,kb,a66kn1,dsax1,10640899995,77159934786,84538729092,system,shelfslider,tail,h5,yl,iwefng,175,kvfi,pvpxy,kbvw,bo,qie,ucgm,ucyuq,qgog,ve,qy8c,qamh,jcg,ssw,pv,cn,gt,xywx,stt37i,mtg,dfo0y,tsub,a0xau,0cak,uca1r3ra,jyn,bu9u6o,a8g,bdd,jm5y,r1,fcysl,i3x,bwt,0p,ci7,gj,ng51,c3jgm,uwqo,uxa,kdged78,jsy0,jh1,zgy,uct,jc8d6k,uyv,fz3h,c1,j1,zr9,ed,rza,loax,ek,caxar6,tbm,ezo,s00f,lk,qp3saukwgv,ce1,lx8,uchyk2,tm,qz,kbx9,bm,cj3w,u6,qxcyw7,ff,sy,ah,hlwx,et69wr,sg6,wu,uc1a,yi9,qmo9wxq,ic,syk,r3,svg,ucr,tt2,dc49j7r,lmzv5,e8rk,dw4s,4387,o5,z9,s3,zr,f5,ttg,ucpdxxx,jj9nax0fr0,wfc048g,o4zc,ucgd,xje,mk,ljk6,p8,lk0a,vcg,dnepi,kod8fo,ucfipbp94w,ef,zem,saonc9,0g,ol6,yd93,hs,jt,jkmi,cpb9,b1qf7qj,eoa,nhs,nk,i1,w0,collapser,grouplet,fge0,me9ug,nm4,ck6b,kla9,oo2yjgo,zs92e,cn11k,88,mmv,i1ic,g23d,u1q7hmc,ph8,pe5,g1p0,y6,une,nt1,54337155531,55872257647,none,21895687857,61476776213,8610475501,ctn,hdj3df7i,ioq,yv66,cpt,uc2y,w22,yy5c,pw,cnpo9rnag,nce,dho,xkl,kk,cb6,cyb31j,s0tkf,tuxq,wi8,sc,vq,cj,9owb1z,m43vqsw,mnq,rhr,hk,vuerc,uc5,a9qm,hj,vtu,gmsqvb,xq7,m5w,mc,rw4,ix0g,ek0,pyfn,iwq,n1jb,evh,fz,qm,cv9,cpo9,v8,dn,s2o,t1qpu0,ucnvby,wj9d,hq,hbq,45401938958,73315793539,50526661275,pltb,ldtug,rf47h,syelj6,doj,nocy76,70452202422,19789890486,68017731421,44274807061,73024694966,lq,psaf,j7p,obz,ny4,qcunzb92sk2,wd,zksr,wgc,ojc,e3m,sux,uxsw,iv,gky,6920900817,47529211907,71711256821,53796236792,32878377689,flmq7,72903223273,94770047603,10635380850,81555973511,30790354784,ucw,kab62,ge6z,eab,0fu3s9g,28496677961,44187996777,41708103899,72121174111,83829769220,va,f6bv,pq,su,rej,uw2,yu,w4t,jdbd,11043400569,70903686770,72132710359,80342991673,15631804050,wdrv,neuc7j,aumax,wo,m3,84130707237,34269902321,zt3cjh,bd0,mfl,39332090425,50930162769,86189150852,yh4,jwo9v,wkf,zwc0w4b4ng,14572988144,75453196746,96880968871,42378998839,90825399229,11699576226,71991102072,95391414046,56888471976,5513706058,creative,collapsible,eow,uc24,qr1h,qg0,c9k,phs0lc,preferences,extras,sparkbars,sparkbar,dislike,sentiment,actionable,liked,panels,uploader,reuse,collapse,rental,rule,cmt,discussion,companion,120,lzc,attribution,hn5,tz,oib0d,mh,mk5,ovn8s3g,qn0np,vb,obusjt99,ui7y,hw,i7rw,xy2b8cq,ucknna1hx,x6,w0m1z,bo50e,dvw,9z,nrl,thl,ogr98,dr6v,je1f,kug,lvv3kzk,zd4,hzln,biy,az9,agdw,vh,ucp,nv2,a9r,rh,jp,kwgw,jn8n,xm7qbbc,okcp,ekf,whv05xe,bu,s9hfg,qnxsifh,bfg,m7,r8f,wo6,gd,loz,c3g,m55,d6,jf,cb4,mku6w,ay9b6n,ith,qpn6,ls,cv,ejp5,vfs,j2,r29bgg,r9g,tf,aocwyo4,krq,j263,wgp,f9,biw,pfl7jw,iq,s22,f1k,jglf,vy6x,zt,cgg,ser,xs,qht7,oj1vy,j0,r3e,uco1,vlnb,ck,aqf152w,um,soj4,o6,jw,oxgr,sf1las,d4,long,uc8,gb8,i78,z6ot3z9,arl8,mb9,tv7,zqo,ucdi,zyte,xjm,ts,k9u,sbmmi,oxa,ucy8e,kje,vo,sn2,o0,p8bh,xp,rub,lj0,ofv,y1,jtcqnsg,ukh,a79ke,yzg,ucfmm,hrsg,bgywz7,hmg9,s7,wqno,vgv,uccf,snsq,l12x,wh9,bz,ia,xn8,pbwtf6a0,doy,wo4ammz,n1i03,wg6p,uc2o,ypf7z,g0,wh2,md3i,mft,o9,mb6wy,kmk,hi0,cl8,me5n,ajolwm5,pwt,yd,bgurr05,dx,kex,wboj,ve7,q3p,x4,ye5,so7ye,95,jyl,vs52,dch3,bp4g,khc4cec0,pu1,pa,nu0s,pv9,uczi,qdd,swy5t,fc5n,67,jxza,xu,ipq,q4i,da8d,qt,08,vwt,ydo,bh,lpx,vr4,jlr,jgj3,z63d4o,uqq,b2n,i2g,z0,uc0r,nv0,im3,rk,hqb,jy9,kc8,udv,oqit,kd8w,rs07,s9,z6,kr,cl1vl,cbz4kqq,asrb,jtt,hn,ka,buy,offer,nowrap,uwb3,sn,uc0,nyajm1z,pg6,g1,zq,glw,ql,o0dd,eeo5,ucwh0,ku3,ryap2hs4,b22,asy,v4zs,uctj,aroibit,nem3pesh,cfg,xf,bb,yc,t498q7,p5q,cmeipl0,i1hu7,g9uo,cg,sfg,lp,i8,fu,uc37,bpl,pwb,v07,f2,puq,ns,s6,ks0,f4,wf,x3isv,g1g,t4,wch39w,yx8q,t3ue,yob,uc5qb,gzp,pea,rp1h,lqa,hnjx,jkf2,eh7k5,wy,lem,avecw,qv6,vks,ud1wjc,lh,ldyvpq,kdlz,e8,hdtu,ydy,jlbw,lbpb,nwa,m7w,rf,vg,gzoo,yu8,ucj,yy,ka1,mpq0h,ccw,f8,db,faj6,cb,fj,sv0,lf4,iz,j5,jaw,gw6x8,jt0q8q,cis,cchfz,hohg,nogg,msx4,ucq,gn,gso,wt6v8xz,4209872269,transcript,found,zmpu,yhp,zqk9r,qb8,eqei,il3,xy8,pbvhf,m0,naq778i,io,yi8tm,q3o,qwc,chtzd,eso4,yax,y5s,tdwl3w,ll8uq,rmw40,uc1cftw9,cmdh,yo1g,wuv9fyc4,uctc,3dg,ypd,zv4,c1w,gj9lv,ob,dc,sbu,snntv,obwxxq,yjoz7,f5q,qw,km,xa6,8p,nm,ucpxy,emw,bv,est,eztq,0w,d8,xx,h5g6,k4g,ucq0g,g42b,bi7y,hx9,jyex,3xz05,guu9,i0,ccp5,qyn,ziw,vm3d,tbeg,64,hctmy,fgm,sbg,autogenerated,k8,pg,lverylk,pg1plqw,f00,jccgdv2k,zcc,nqph7,xe0,g5ztnk'
p8
asS'learned'
p9
I01
sS'labels'
p10
(lp11
I0
aI0
aI0
aI0
aI0
aI0
aI0
aI0
aI0
aI0
aI0
aI0
aI0
aI0
aI0
aI0
aI0
aI0
aI0
aI0
aI0
aI0
aI0
aI0
aI0
aI0
aI0
aI0
aI0
aI0
aI0
aI0
aI0
aI0
aI0
aI0
aI0
aI0
aI0
aI0
aI0
aI0
aI0
aI0
aI0
aI0
aI0
aI0
aI0
aI0
aI0
aI0
aI0
aI0
aI0
aI0
aI0
aI1
aI1
aI1
aI1
aI1
aI1
aI1
aI1
aI1
aI1
aI1
aI1
aI1
aI1
aI1
aI1
aI1
aI1
aI1
aI1
aI1
aI1
aI1
aI1
aI1
aI1
aI1
aI1
aI1
aI1
aI1
aI1
aI1
aI1
aI1
aI1
aI1
aI1
aI1
aI1
aI1
aI1
aI1
aI1
aI1
aI1
aI1
aI1
aI1
aI1
aI1
aI1
aI1
aI1
aI1
aI1
aI1
aI1
aI1
aI1
aI1
aI1
aI1
aI1
aI1
aI1
aI1
aI1
aI1
aI1
asS'clf'
p12
g1
(csklearn.linear_model.base
LinearRegression
p13
g3
NtRp14
(dp15
S'normalize'
p16
I00
sS'intercept_'
p17
cnumpy.core.multiarray
scalar
p18
(cnumpy
dtype
p19
(S'f8'
I0
I1
tRp20
(I3
S'<'
NNNI-1
I-1
I0
tbS'i4\x1a\x8dF\xa3\xe1?'
tRp21
sS'residues_'
p22
cnumpy.core.multiarray
_reconstruct
p23
(cnumpy
ndarray
p24
(I0
tS'b'
tRp25
(I1
(I0
tg20
I00
S''
tbsS'fit_intercept'
p26
I01
sS'coef_'
p27
g23
(g24
(I0
tS'b'
tRp28
(I1
(I1
tg20
I00
S'\x00\x00\x00\x00\x00\x00\x00\x00'
tbsS'copy_X'
p29
I01
sS'rank_'
p30
I0
sS'singular_'
p31
g23
(g24
(I0
tS'b'
tRp32
(I1
(I1
tg20
I00
S'\x00\x00\x00\x00\x00\x00\x00\x00'
tbsbsS'matrix'
p33
(lp34
(lp35
I0
aa(lp36
I0
aa(lp37
I0
aa(lp38
I0
aa(lp39
I0
aa(lp40
I0
aa(lp41
I0
aa(lp42
I0
aa(lp43
I0
aa(lp44
I0
aa(lp45
I0
aa(lp46
I0
aa(lp47
I0
aa(lp48
I0
aa(lp49
I0
aa(lp50
I0
aa(lp51
I0
aa(lp52
I0
aa(lp53
I0
aa(lp54
I0
aa(lp55
I0
aa(lp56
I0
aa(lp57
I0
aa(lp58
I0
aa(lp59
I0
aa(lp60
I0
aa(lp61
I0
aa(lp62
I0
aa(lp63
I0
aa(lp64
I0
aa(lp65
I0
aa(lp66
I0
aa(lp67
I0
aa(lp68
I0
aa(lp69
I0
aa(lp70
I0
aa(lp71
I0
aa(lp72
I0
aa(lp73
I0
aa(lp74
I0
aa(lp75
I0
aa(lp76
I0
aa(lp77
I0
aa(lp78
I0
aa(lp79
I0
aa(lp80
I0
aa(lp81
I0
aa(lp82
I0
aa(lp83
I0
aa(lp84
I0
aa(lp85
I0
aa(lp86
I0
aa(lp87
I0
aa(lp88
I0
aa(lp89
I0
aa(lp90
I0
aa(lp91
I0
aa(lp92
I0
aa(lp93
I0
aa(lp94
I0
aa(lp95
I0
aa(lp96
I0
aa(lp97
I0
aa(lp98
I0
aa(lp99
I0
aa(lp100
I0
aa(lp101
I0
aa(lp102
I0
aa(lp103
I0
aa(lp104
I0
aa(lp105
I0
aa(lp106
I0
aa(lp107
I0
aa(lp108
I0
aa(lp109
I0
aa(lp110
I0
aa(lp111
I0
aa(lp112
I0
aa(lp113
I0
aa(lp114
I0
aa(lp115
I0
aa(lp116
I0
aa(lp117
I0
aa(lp118
I0
aa(lp119
I0
aa(lp120
I0
aa(lp121
I0
aa(lp122
I0
aa(lp123
I0
aa(lp124
I0
aa(lp125
I0
aa(lp126
I0
aa(lp127
I0
aa(lp128
I0
aa(lp129
I0
aa(lp130
I0
aa(lp131
I0
aa(lp132
I0
aa(lp133
I0
aa(lp134
I0
aa(lp135
I0
aa(lp136
I0
aa(lp137
I0
aa(lp138
I0
aa(lp139
I0
aa(lp140
I0
aa(lp141
I0
aa(lp142
I0
aa(lp143
I0
aa(lp144
I0
aa(lp145
I0
aa(lp146
I0
aa(lp147
I0
aa(lp148
I0
aa(lp149
I0
aa(lp150
I0
aa(lp151
I0
aa(lp152
I0
aa(lp153
I0
aa(lp154
I0
aa(lp155
I0
aa(lp156
I0
aa(lp157
I0
aa(lp158
I0
aa(lp159
I0
aa(lp160
I0
aa(lp161
I0
aasb.